
AutonomousDriving.elf:     file format elf32-littlenios2
AutonomousDriving.elf
architecture: nios2, flags 0x00000112:
EXEC_P, HAS_SYMS, D_PAGED
start address 0x000001b4

Program Header:
    LOAD off    0x00001000 vaddr 0x00000000 paddr 0x00000000 align 2**12
         filesz 0x00000020 memsz 0x00000020 flags r-x
    LOAD off    0x00001020 vaddr 0x00000020 paddr 0x00000020 align 2**12
         filesz 0x0000ebc8 memsz 0x0000ebc8 flags r-x
    LOAD off    0x0000fbe8 vaddr 0x0000ebe8 paddr 0x00010714 align 2**12
         filesz 0x00001b2c memsz 0x00001b2c flags rw-
    LOAD off    0x00012240 vaddr 0x00012240 paddr 0x00012240 align 2**12
         filesz 0x00000000 memsz 0x000003ac flags rw-

Sections:
Idx Name          Size      VMA       LMA       File off  Algn
  0 .entry        00000020  00000000  00000000  00001000  2**5
                  CONTENTS, ALLOC, LOAD, READONLY, CODE
  1 .exceptions   00000194  00000020  00000020  00001020  2**2
                  CONTENTS, ALLOC, LOAD, READONLY, CODE
  2 .text         0000e664  000001b4  000001b4  000011b4  2**2
                  CONTENTS, ALLOC, LOAD, READONLY, CODE
  3 .rodata       000003d0  0000e818  0000e818  0000f818  2**2
                  CONTENTS, ALLOC, LOAD, READONLY, DATA
  4 .rwdata       00001b2c  0000ebe8  00010714  0000fbe8  2**2
                  CONTENTS, ALLOC, LOAD, DATA, SMALL_DATA
  5 .bss          000003ac  00012240  00012240  00012240  2**2
                  ALLOC, SMALL_DATA
  6 .comment      00000026  00000000  00000000  00011714  2**0
                  CONTENTS, READONLY
  7 .debug_aranges 00000e58  00000000  00000000  00011740  2**3
                  CONTENTS, READONLY, DEBUGGING
  8 .debug_pubnames 00001ac0  00000000  00000000  00012598  2**0
                  CONTENTS, READONLY, DEBUGGING
  9 .debug_info   00026f25  00000000  00000000  00014058  2**0
                  CONTENTS, READONLY, DEBUGGING
 10 .debug_abbrev 00008de1  00000000  00000000  0003af7d  2**0
                  CONTENTS, READONLY, DEBUGGING
 11 .debug_line   00015a57  00000000  00000000  00043d5e  2**0
                  CONTENTS, READONLY, DEBUGGING
 12 .debug_frame  00001d78  00000000  00000000  000597b8  2**2
                  CONTENTS, READONLY, DEBUGGING
 13 .debug_str    00002322  00000000  00000000  0005b530  2**0
                  CONTENTS, READONLY, DEBUGGING
 14 .debug_loc    0000ca20  00000000  00000000  0005d852  2**0
                  CONTENTS, READONLY, DEBUGGING
 15 .debug_alt_sim_info 00000030  00000000  00000000  0006a274  2**2
                  CONTENTS, READONLY, DEBUGGING
 16 .debug_ranges 00000ad8  00000000  00000000  0006a2a8  2**3
                  CONTENTS, READONLY, DEBUGGING
 17 .thread_model 00000003  00000000  00000000  0006e5b6  2**0
                  CONTENTS, READONLY
 18 .cpu          00000003  00000000  00000000  0006e5b9  2**0
                  CONTENTS, READONLY
 19 .simulation_enabled 00000001  00000000  00000000  0006e5bc  2**0
                  CONTENTS, READONLY
 20 .stderr_dev   00000009  00000000  00000000  0006e5bd  2**0
                  CONTENTS, READONLY
 21 .stdin_dev    00000009  00000000  00000000  0006e5c6  2**0
                  CONTENTS, READONLY
 22 .stdout_dev   00000009  00000000  00000000  0006e5cf  2**0
                  CONTENTS, READONLY
 23 .sopc_system_name 0000000d  00000000  00000000  0006e5d8  2**0
                  CONTENTS, READONLY
 24 .quartus_project_dir 0000001f  00000000  00000000  0006e5e5  2**0
                  CONTENTS, READONLY
 25 .sopcinfo     000a7c45  00000000  00000000  0006e604  2**0
                  CONTENTS, READONLY
SYMBOL TABLE:
00000000 l    d  .entry	00000000 .entry
00000020 l    d  .exceptions	00000000 .exceptions
000001b4 l    d  .text	00000000 .text
0000e818 l    d  .rodata	00000000 .rodata
0000ebe8 l    d  .rwdata	00000000 .rwdata
00012240 l    d  .bss	00000000 .bss
00000000 l    d  .comment	00000000 .comment
00000000 l    d  .debug_aranges	00000000 .debug_aranges
00000000 l    d  .debug_pubnames	00000000 .debug_pubnames
00000000 l    d  .debug_info	00000000 .debug_info
00000000 l    d  .debug_abbrev	00000000 .debug_abbrev
00000000 l    d  .debug_line	00000000 .debug_line
00000000 l    d  .debug_frame	00000000 .debug_frame
00000000 l    d  .debug_str	00000000 .debug_str
00000000 l    d  .debug_loc	00000000 .debug_loc
00000000 l    d  .debug_alt_sim_info	00000000 .debug_alt_sim_info
00000000 l    d  .debug_ranges	00000000 .debug_ranges
000001fc l       .text	00000000 alt_after_alt_main
00000000 l    df *ABS*	00000000 alt_irq_handler.c
00000000 l    df *ABS*	00000000 head.c
00000000 l    df *ABS*	00000000 smaro.c
00000000 l    df *ABS*	00000000 libgcc2.c
00000000 l    df *ABS*	00000000 fp-bit.c
000007d4 l     F .text	000001e4 _fpadd_parts
00000000 l    df *ABS*	00000000 fp-bit.c
00000000 l    df *ABS*	00000000 fp-bit.c
00000000 l    df *ABS*	00000000 fp-bit.c
00000000 l    df *ABS*	00000000 fp-bit.c
00000000 l    df *ABS*	00000000 fp-bit.c
00000000 l    df *ABS*	00000000 fp-bit.c
00000000 l    df *ABS*	00000000 lib2-divmod.c
00000fac l     F .text	0000007c udivmodsi4
00000000 l    df *ABS*	00000000 libgcc2.c
00000000 l    df *ABS*	00000000 libgcc2.c
00000000 l    df *ABS*	00000000 fp-bit.c
00000000 l    df *ABS*	00000000 fp-bit.c
00000000 l    df *ABS*	00000000 fp-bit.c
00000000 l    df *ABS*	00000000 libgcc2.c
00000000 l    df *ABS*	00000000 printf.c
00000000 l    df *ABS*	00000000 puts.c
00000000 l    df *ABS*	00000000 strlen.c
00000000 l    df *ABS*	00000000 vfprintf.c
00001680 l     F .text	00000058 __sprint_r
0000ea12 l     O .rodata	00000010 blanks.3452
0000ea02 l     O .rodata	00000010 zeroes.3453
00000000 l    df *ABS*	00000000 wsetup.c
00000000 l    df *ABS*	00000000 dtoa.c
000036e4 l     F .text	00000218 quorem
00000000 l    df *ABS*	00000000 fflush.c
00000000 l    df *ABS*	00000000 findfp.c
000050e0 l     F .text	00000058 std
000051ec l     F .text	00000008 __fp_lock
000051f4 l     F .text	00000008 __fp_unlock
00000000 l    df *ABS*	00000000 mallocr.c
00000000 l    df *ABS*	00000000 fvwrite.c
00000000 l    df *ABS*	00000000 fwalk.c
00000000 l    df *ABS*	00000000 impure.c
0000ebe8 l     O .rwdata	00000400 impure_data
00000000 l    df *ABS*	00000000 locale.c
000106d8 l     O .rwdata	00000004 charset
0000ea48 l     O .rodata	00000030 lconv
00000000 l    df *ABS*	00000000 makebuf.c
00000000 l    df *ABS*	00000000 mallocr.c
00000000 l    df *ABS*	00000000 memchr.c
00000000 l    df *ABS*	00000000 memcpy.c
00000000 l    df *ABS*	00000000 memmove.c
00000000 l    df *ABS*	00000000 memset.c
00000000 l    df *ABS*	00000000 mprec.c
0000eb90 l     O .rodata	0000000c p05.2458
00000000 l    df *ABS*	00000000 mallocr.c
00000000 l    df *ABS*	00000000 s_isinfd.c
00000000 l    df *ABS*	00000000 s_isnand.c
00000000 l    df *ABS*	00000000 sbrkr.c
00000000 l    df *ABS*	00000000 stdio.c
00000000 l    df *ABS*	00000000 strcmp.c
00000000 l    df *ABS*	00000000 writer.c
00000000 l    df *ABS*	00000000 mallocr.c
00000000 l    df *ABS*	00000000 closer.c
00000000 l    df *ABS*	00000000 fclose.c
00000000 l    df *ABS*	00000000 fstatr.c
00000000 l    df *ABS*	00000000 int_errno.c
00000000 l    df *ABS*	00000000 isattyr.c
00000000 l    df *ABS*	00000000 lseekr.c
00000000 l    df *ABS*	00000000 readr.c
00000000 l    df *ABS*	00000000 libgcc2.c
00000000 l    df *ABS*	00000000 libgcc2.c
00000000 l    df *ABS*	00000000 dp-bit.c
00009380 l     F .text	00000410 _fpadd_parts
00000000 l    df *ABS*	00000000 dp-bit.c
00000000 l    df *ABS*	00000000 dp-bit.c
00000000 l    df *ABS*	00000000 dp-bit.c
00000000 l    df *ABS*	00000000 dp-bit.c
00000000 l    df *ABS*	00000000 dp-bit.c
00000000 l    df *ABS*	00000000 dp-bit.c
00000000 l    df *ABS*	00000000 dp-bit.c
00000000 l    df *ABS*	00000000 dp-bit.c
00000000 l    df *ABS*	00000000 dp-bit.c
00000000 l    df *ABS*	00000000 dp-bit.c
00000000 l    df *ABS*	00000000 dp-bit.c
00000000 l    df *ABS*	00000000 dp-bit.c
00000000 l    df *ABS*	00000000 dp-bit.c
00000000 l    df *ABS*	00000000 dp-bit.c
00000000 l    df *ABS*	00000000 alt_close.c
0000aabc l     F .text	00000060 alt_get_errno
00000000 l    df *ABS*	00000000 alt_dev.c
0000ab1c l     F .text	0000002c alt_dev_null_write
00000000 l    df *ABS*	00000000 alt_errno.c
00000000 l    df *ABS*	00000000 alt_fstat.c
0000ac1c l     F .text	00000060 alt_get_errno
00000000 l    df *ABS*	00000000 alt_isatty.c
0000ad3c l     F .text	00000060 alt_get_errno
00000000 l    df *ABS*	00000000 alt_load.c
0000ae1c l     F .text	0000006c alt_load_section
00000000 l    df *ABS*	00000000 alt_lseek.c
0000af78 l     F .text	00000060 alt_get_errno
00000000 l    df *ABS*	00000000 alt_main.c
00000000 l    df *ABS*	00000000 alt_malloc_lock.c
00000000 l    df *ABS*	00000000 alt_read.c
0000b1a4 l     F .text	00000060 alt_get_errno
00000000 l    df *ABS*	00000000 alt_release_fd.c
00000000 l    df *ABS*	00000000 alt_sbrk.c
000106fc l     O .rwdata	00000004 heap_end
00000000 l    df *ABS*	00000000 alt_write.c
0000b440 l     F .text	00000060 alt_get_errno
00000000 l    df *ABS*	00000000 alt_sys_init.c
0000f5a4 l     O .rwdata	000000c8 epcs
0000f66c l     O .rwdata	00001060 jtag_uart
0000b538 l     F .text	00000038 alt_dev_reg
00000000 l    df *ABS*	00000000 altera_avalon_epcs_flash_controller.c
0000b5fc l     F .text	00000288 alt_epcs_flash_query
0000b5c4 l     F .text	00000038 alt_flash_device_register
0000b884 l     F .text	00000108 alt_epcs_flash_memcmp
0000bd0c l     F .text	00000094 alt_epcs_test_address
00000000 l    df *ABS*	00000000 altera_avalon_jtag_uart_fd.c
00000000 l    df *ABS*	00000000 altera_avalon_jtag_uart_init.c
0000c15c l     F .text	00000228 altera_avalon_jtag_uart_irq
0000c384 l     F .text	000000b0 altera_avalon_jtag_uart_timeout
00000000 l    df *ABS*	00000000 altera_avalon_jtag_uart_ioctl.c
00000000 l    df *ABS*	00000000 altera_avalon_jtag_uart_read.c
00000000 l    df *ABS*	00000000 altera_avalon_jtag_uart_write.c
00000000 l    df *ABS*	00000000 altera_avalon_timer_sc.c
0000ca00 l     F .text	00000070 alt_avalon_timer_sc_irq
00000000 l    df *ABS*	00000000 epcs_commands.c
0000cc58 l     F .text	00000038 epcs_await_wip_released
0000cc90 l     F .text	00000038 epcs_test_wip
00000000 l    df *ABS*	00000000 alt_alarm_start.c
00000000 l    df *ABS*	00000000 alt_dcache_flush_all.c
00000000 l    df *ABS*	00000000 alt_dev_llist_insert.c
0000d420 l     F .text	00000060 alt_get_errno
00000000 l    df *ABS*	00000000 alt_do_ctors.c
00000000 l    df *ABS*	00000000 alt_do_dtors.c
00000000 l    df *ABS*	00000000 alt_flash_dev.c
00000000 l    df *ABS*	00000000 alt_icache_flush_all.c
00000000 l    df *ABS*	00000000 alt_iic.c
00000000 l    df *ABS*	00000000 alt_iic_isr_register.c
00000000 l    df *ABS*	00000000 alt_io_redirect.c
0000d914 l     F .text	000000c4 alt_open_fd
00000000 l    df *ABS*	00000000 alt_irq_vars.c
00000000 l    df *ABS*	00000000 alt_open.c
0000da50 l     F .text	000000dc alt_file_locked
0000dcb4 l     F .text	00000060 alt_get_errno
00000000 l    df *ABS*	00000000 alt_tick.c
00000000 l    df *ABS*	00000000 altera_nios2_irq.c
00000000 l    df *ABS*	00000000 altera_avalon_spi.c
00000000 l    df *ABS*	00000000 alt_find_dev.c
00000000 l    df *ABS*	00000000 alt_find_file.c
00000000 l    df *ABS*	00000000 alt_get_fd.c
00000000 l    df *ABS*	00000000 alt_icache_flush.c
00000000 l    df *ABS*	00000000 atexit.c
00000000 l    df *ABS*	00000000 exit.c
00000000 l    df *ABS*	00000000 memcmp.c
00000000 l    df *ABS*	00000000 __atexit.c
00000000 l    df *ABS*	00000000 __call_atexit.c
0000e600 l     F .text	00000004 register_fini
00000000 l    df *ABS*	00000000 alt_exit.c
0000e7b4 l     F .text	00000040 alt_sim_halt
00006e9c g     F .text	00000094 _mprec_log10
00012240 g     O .bss	00000004 pI2CDataAvailable
0000bc0c g     F .text	00000090 alt_epcs_flash_get_info
00006f88 g     F .text	00000088 __any_on
00008694 g     F .text	00000070 _isatty_r
0000eb68 g     O .rodata	00000028 __mprec_tinytens
0000afd8 g     F .text	0000006c alt_main
00001558 g     F .text	000000a0 _puts_r
0001235c g     O .bss	00000100 alt_irq
00008704 g     F .text	00000078 _lseek_r
00010714 g       *ABS*	00000000 __flash_rwdata_start
00009ea0 g     F .text	00000088 __eqdf2
000125ec g       *ABS*	00000000 __alt_heap_start
000014e0 g     F .text	00000044 printf
00008160 g     F .text	00000068 __sseek
00005148 g     F .text	000000a4 __sinit
00005e20 g     F .text	00000084 _setlocale_r
00005248 g     F .text	00000068 __sfmoreglue
0000b064 g     F .text	00000020 __malloc_unlock
00000c6c g     F .text	00000174 __divsf3
00006918 g     F .text	000000e0 memmove
00005238 g     F .text	00000010 _cleanup
00012244 g     O .bss	00000004 pRearRightEncRead
00007010 g     F .text	000000bc _Balloc
00000e58 g     F .text	00000094 __fixsfsi
00009fb0 g     F .text	00000088 __gtdf2
00000000  w      *UND*	00000000 __errno
0000cb60 g     F .text	000000f8 epcs_sector_erase
00000000 g     F .entry	0000001c __reset
00000020 g       *ABS*	00000000 __flash_exceptions_start
00008620 g     F .text	00000074 _fstat_r
000122b4 g     O .bss	00000004 errno
00012248 g     O .bss	00000004 pFrontLeftEncRead
000122bc g     O .bss	00000004 alt_argv
000186cc g       *ABS*	00000000 _gp
000009b8 g     F .text	00000070 __subsf3
0000f424 g     O .rwdata	00000180 alt_fd_list
0001224c g     O .bss	00000004 pHc_sr04
000004ac g     F .text	000000ac I2CRead
0000ce64 g     F .text	00000064 epcs_write_status_register
0000e110 g     F .text	00000094 alt_find_dev
00006878 g     F .text	000000a0 memcpy
0000035c g     F .text	0000006c set_duty_cycle
0000522c g     F .text	0000000c _cleanup_r
0000a148 g     F .text	000000f8 __floatsidf
0000d9d8 g     F .text	00000078 alt_io_redirect
0000a0c0 g     F .text	00000088 __ltdf2
0000e818 g       *ABS*	00000000 __DTOR_END__
000015f8 g     F .text	00000014 puts
0000deb8 g     F .text	00000020 altera_nios2_irq_init
0000bda0 g     F .text	0000011c alt_epcs_flash_write_block
00006dec g     F .text	000000b0 __ratio
0000c59c g     F .text	00000224 altera_avalon_jtag_uart_read
00000000  w      *UND*	00000000 malloc
00001524 g     F .text	00000034 _printf_r
000010e8 g     F .text	00000008 __udivsi3
0000ac7c g     F .text	000000c0 isatty
0000ea78 g     O .rodata	000000c8 __mprec_tens
00005dfc g     F .text	00000008 __locale_charset
00012250 g     O .bss	00000004 pFrontRightDutySet
0000e37c g     F .text	00000090 alt_icache_flush
000122a8 g     O .bss	00000004 __malloc_top_pad
000106d4 g     O .rwdata	00000004 __mb_cur_max
00005e04 g     F .text	0000000c _localeconv_r
00007708 g     F .text	0000003c __i2b
000057e0 g     F .text	0000049c __sfvwrite_r
000080e8 g     F .text	00000070 _sbrk_r
0000877c g     F .text	00000078 _read_r
0000efe8 g     O .rwdata	0000000c __lc_ctype
000106f4 g     O .rwdata	00000004 alt_max_fd
0000a7c0 g     F .text	00000138 __unpack_d
000084fc g     F .text	00000110 _fclose_r
02005000 g       *ABS*	00000000 __alt_mem_state_cmd_memory
000050ac g     F .text	00000034 fflush
000122ac g     O .bss	00000004 __malloc_max_sbrked_mem
00009810 g     F .text	00000074 __adddf3
0000bc9c g     F .text	00000070 alt_epcs_flash_erase_block
00006ccc g     F .text	00000120 __b2d
00008dd0 g     F .text	000005b0 __umoddi3
0000ae88 g     F .text	000000f0 lseek
000106d0 g     O .rwdata	00000004 _global_impure_ptr
0000d17c g     F .text	00000058 epcs_exit_4_bytes_mode
00007a84 g     F .text	000005f4 _realloc_r
000125ec g       *ABS*	00000000 __bss_end
0000d81c g     F .text	000000f8 alt_iic_isr_register
0000ddac g     F .text	0000010c alt_tick
000087f4 g     F .text	000005dc __udivdi3
0000eb40 g     O .rodata	00000028 __mprec_bigtens
00007964 g     F .text	00000120 __s2b
0000a318 g     F .text	00000194 __floatunsidf
00006bec g     F .text	00000060 __mcmp
00005214 g     F .text	00000018 __fp_lock_all
0000d7d4 g     F .text	00000048 alt_ic_irq_enabled
0000dd14 g     F .text	00000098 alt_alarm_stop
000122c4 g     O .bss	00000004 alt_irq_active
000000ec g     F .exceptions	000000c8 alt_irq_handler
0000f3fc g     O .rwdata	00000028 alt_dev_null
00001370 g     F .text	000000c8 __unpack_f
0000d328 g     F .text	00000044 alt_dcache_flush_all
00006ab8 g     F .text	00000070 __hi0bits
0000a240 g     F .text	000000d8 __fixdfsi
00010714 g       *ABS*	00000000 __ram_rwdata_end
000106ec g     O .rwdata	00000008 alt_dev_list
0000b320 g     F .text	00000120 write
0000ebe8 g       *ABS*	00000000 __ram_rodata_end
0000ab48 g     F .text	000000d4 fstat
000003c8 g     F .text	00000080 MeasureDistance
00007844 g     F .text	00000120 __pow5mult
0001229c g     O .bss	00000004 __nlocale_changed
000010f0 g     F .text	00000008 __umodsi3
0000d038 g     F .text	0000006c epcs_read_electronic_signature
000125ec g       *ABS*	00000000 end
00001210 g     F .text	00000160 __pack_f
0000c09c g     F .text	000000c0 altera_avalon_jtag_uart_init
00012254 g     O .bss	00000004 pRearRightEncSet
0000e814 g       *ABS*	00000000 __CTOR_LIST__
01100000 g       *ABS*	00000000 __alt_stack_pointer
0000ca70 g     F .text	00000090 alt_avalon_timer_sc_init
00001190 g     F .text	00000080 __clzsi2
0000c7c0 g     F .text	00000240 altera_avalon_jtag_uart_write
00005138 g     F .text	00000004 __sfp_lock_acquire
00006794 g     F .text	000000e4 memchr
000016d8 g     F .text	00001eac ___vfprintf_internal_r
000054cc g     F .text	00000314 _free_r
00012258 g     O .bss	00000004 pI2CRegWriteData
0000e604 g     F .text	000001b0 __call_exitprocs
000122a0 g     O .bss	00000004 __mlocale_changed
000106e0 g     O .rwdata	00000004 __malloc_sbrk_base
000001b4 g     F .text	0000004c _start
000122c8 g     O .bss	00000004 _alt_tick_rate
000073d4 g     F .text	0000014c __lshift
0000ded8 g     F .text	00000238 alt_avalon_spi_command
000122cc g     O .bss	00000004 _alt_nticks
0000b084 g     F .text	00000120 read
0000b4d4 g     F .text	00000064 alt_sys_init
0000e4cc g     F .text	00000134 __register_exitproc
00007520 g     F .text	000001e8 __multiply
0000c434 g     F .text	00000074 altera_avalon_jtag_uart_close
0000ebe8 g       *ABS*	00000000 __ram_rwdata_start
0000e818 g       *ABS*	00000000 __ram_rodata_start
000122d0 g     O .bss	00000028 __malloc_current_mallinfo
000070cc g     F .text	0000017c __d2b
0000cb00 g     F .text	00000060 epcs_read_status_register
0001225c g     O .bss	00000001 c
0000bf54 g     F .text	00000058 altera_avalon_jtag_uart_read_fd
0000e2c4 g     F .text	000000b8 alt_get_fd
0000a8f8 g     F .text	000000c8 __fpcmp_parts_d
00012260 g     O .bss	00000004 pUltraSoundArray
0000848c g     F .text	00000070 _close_r
00012264 g     O .bss	00000004 pFrontLeftEncSet
0000d0a4 g     F .text	00000080 epcs_read_device_id
0000e458 g     F .text	00000074 memcmp
0000c004 g     F .text	00000048 altera_avalon_jtag_uart_close_fd
000125ec g       *ABS*	00000000 __alt_stack_base
0000c04c g     F .text	00000050 altera_avalon_jtag_uart_ioctl_fd
000035a8 g     F .text	0000013c __swsetup_r
00000200 g     F .text	00000120 init
00009c48 g     F .text	00000258 __divdf3
000122f8 g     O .bss	00000064 versionName
000052b0 g     F .text	000000f0 __sfp
00006f30 g     F .text	00000058 __copybits
0000eff4 g     O .rwdata	00000408 __malloc_av_
00005144 g     F .text	00000004 __sinit_lock_release
00009884 g     F .text	000003c4 __muldf3
00008244 g     F .text	00000060 __sread
0000e890 g     O .rodata	00000010 __thenan_sf
0000e1a4 g     F .text	00000120 alt_find_file
0000d36c g     F .text	000000b4 alt_dev_llist_insert
0000b044 g     F .text	00000020 __malloc_lock
0000b264 g     F .text	000000bc sbrk
00004eb0 g     F .text	000001fc _fflush_r
000083d8 g     F .text	000000b4 _calloc_r
00010700 g     O .rwdata	00000008 alt_flash_dev_list
00012268 g     O .bss	00000004 pFrontRightEncRead
00012240 g       *ABS*	00000000 __bss_start
000069f8 g     F .text	00000098 memset
00000558 g     F .text	0000020c main
000122c0 g     O .bss	00000004 alt_envp
000122b0 g     O .bss	00000004 __malloc_max_total_mem
0000bfac g     F .text	00000058 altera_avalon_jtag_uart_write_fd
00008158 g     F .text	00000008 __sclose
01100000 g       *ABS*	00000000 __alt_heap_limit
0000860c g     F .text	00000014 fclose
0001245c g     O .bss	00000190 _atexit0
000038fc g     F .text	000015b4 _dtoa_r
00006054 g     F .text	00000740 _malloc_r
000106f8 g     O .rwdata	00000004 alt_errno
0001226c g     O .bss	00000004 pI2CDataLen
02004000 g       *ABS*	00000000 __alt_mem_manuer_queue
00000448 g     F .text	00000064 I2CWrite
00005d44 g     F .text	000000b8 _fwalk
00001028 g     F .text	00000060 __divsi3
0000eb9c g     O .rodata	00000014 __thenan_df
000053a0 g     F .text	0000012c _malloc_trim_r
0000e818 g       *ABS*	00000000 __CTOR_END__
00000a8c g     F .text	000001e0 __mulsf3
0000b98c g     F .text	00000280 alt_epcs_flash_write
000082a4 g     F .text	000000bc strcmp
0000e818 g       *ABS*	00000000 __flash_rodata_start
0000e818 g       *ABS*	00000000 __DTOR_LIST__
00012270 g     O .bss	00000004 uPwmPeriod
00012274 g     O .bss	00000004 pFrontLeftDutySet
00000320 g     F .text	0000003c delay
00009f28 g     F .text	00000088 __nedf2
00012278 g     O .bss	00000004 pI2C
0000b4a0 g     F .text	00000034 alt_irq_init
0000b204 g     F .text	00000060 alt_release_fd
0000e8a0 g     O .rodata	00000100 __clz_tab
000122a4 g     O .bss	00000004 _PathLocale
0000e40c g     F .text	00000014 atexit
00000de0 g     F .text	00000078 __gesf2
00008360 g     F .text	00000078 _write_r
00005ea4 g     F .text	0000001c setlocale
000106cc g     O .rwdata	00000004 _impure_ptr
0001227c g     O .bss	00000004 pRearLeftEncSet
00012280 g     O .bss	00000004 pFrontRightEncSet
000122b8 g     O .bss	00000004 alt_argc
0000d4e4 g     F .text	00000064 _do_dtors
00000020 g       .exceptions	00000000 alt_irq_entry
00012284 g     O .bss	00000004 pRearLeftEncRead
00006c4c g     F .text	00000080 __ulp
00008078 g     F .text	00000040 __isinfd
000051fc g     F .text	00000018 __fp_unlock_all
000106e4 g     O .rwdata	00000008 alt_fs_list
00000020 g       *ABS*	00000000 __ram_exceptions_start
00005e10 g     F .text	00000010 localeconv
0000ccc8 g     F .text	0000014c epcs_read_buffer
0000b570 g     F .text	00000054 alt_epcs_flash_init
0000d648 g     F .text	00000050 alt_ic_isr_register
00010714 g       *ABS*	00000000 _edata
000125ec g       *ABS*	00000000 _end
00012288 g     O .bss	00000004 pRearLeftDutySet
0000d548 g     F .text	0000007c alt_flash_open_dev
000001b4 g       *ABS*	00000000 __ram_exceptions_end
0000c4a8 g     F .text	000000f4 altera_avalon_jtag_uart_ioctl
0000d734 g     F .text	000000a0 alt_ic_irq_disable
0000d124 g     F .text	00000058 epcs_enter_4_bytes_mode
000081c8 g     F .text	0000007c __swrite
000106dc g     O .rwdata	00000004 __malloc_trim_threshold
0000e420 g     F .text	00000038 exit
00005c7c g     F .text	000000c8 _fwalk_reent
00000eec g     F .text	000000c0 __floatunsisf
00007248 g     F .text	0000018c __mdiff
0000d5c4 g     F .text	00000054 alt_flash_close_dev
00001088 g     F .text	00000060 __modsi3
01100000 g       *ABS*	00000000 __alt_data_end
00000020 g     F .exceptions	00000000 alt_exception
0000513c g     F .text	00000004 __sfp_lock_release
00000000 g       *ABS*	00000000 __alt_mem_sdram
0001228c g     O .bss	00000004 pRearRightDutySet
00012290 g     O .bss	00000004 pwm_enable
00000764 g     F .text	00000070 __fixunssfsi
00001438 g     F .text	000000a8 __fpcmp_parts_f
0000e7f4 g     F .text	00000020 _exit
000080b8 g     F .text	00000030 __isnand
0000d1d4 g     F .text	00000154 alt_alarm_start
000010f8 g     F .text	00000098 __muldi3
00005ec0 g     F .text	00000194 __smakebuf_r
0000160c g     F .text	00000074 strlen
0000ce14 g     F .text	00000050 epcs_write_enable
0000db2c g     F .text	00000188 open
0000a038 g     F .text	00000088 __gedf2
0000d618 g     F .text	00000030 alt_icache_flush_all
00012294 g     O .bss	00000004 pI2CCmd
00010708 g     O .rwdata	00000004 alt_priority_mask
0000d698 g     F .text	0000009c alt_ic_irq_enable
00003584 g     F .text	00000024 __vfprintf_internal
02000000 g       *ABS*	00000000 __alt_mem_epcs
00009790 g     F .text	00000080 __subdf3
0000bebc g     F .text	00000098 alt_epcs_flash_read
00006b28 g     F .text	000000c4 __lo0bits
0001070c g     O .rwdata	00000008 alt_alarm_list
0000d480 g     F .text	00000064 _do_ctors
0000a9c0 g     F .text	000000fc close
00000a28 g     F .text	00000064 __addsf3
0000ad9c g     F .text	00000080 alt_load
0000a4ac g     F .text	00000314 __pack_d
00000000  w      *UND*	00000000 free
00005140 g     F .text	00000004 __sinit_lock_acquire
0000cec8 g     F .text	00000170 epcs_write_buffer
00007744 g     F .text	00000100 __multadd
00006a90 g     F .text	00000028 _Bfree
00012298 g     O .bss	00000004 pI2CReg



Disassembly of section .entry:

00000000 <__reset>:
#if NIOS2_ICACHE_SIZE > 0 && defined(ALT_ALLOW_CODE_AT_RESET) && !defined(ALT_SIM_OPTIMIZE)
    /* Assume the instruction cache size is always a power of two. */
#if NIOS2_ICACHE_SIZE > 0x8000
    movhi r2, %hi(NIOS2_ICACHE_SIZE)
#else
    movui r2, NIOS2_ICACHE_SIZE
   0:	00810014 	movui	r2,1024
#endif

0:
    initi r2
   4:	1001483a 	initi	r2
    addi r2, r2, -NIOS2_ICACHE_LINE_SIZE
   8:	10bff804 	addi	r2,r2,-32
    bgt r2, zero, 0b
   c:	00bffd16 	blt	zero,r2,4 <__reset+0x4>
 * Jump to the _start entry point in the .text section if reset code
 * is allowed or if optimizing for RTL simulation.
 */
#if defined(ALT_ALLOW_CODE_AT_RESET) || defined(ALT_SIM_OPTIMIZE)
    /* Jump to the _start entry point in the .text section. */
    movhi r1, %hi(_start)
  10:	00400034 	movhi	at,0
    ori r1, r1, %lo(_start)
  14:	08406d14 	ori	at,at,436
    jmp r1
  18:	0800683a 	jmp	at
  1c:	00000000 	call	0 <__reset>

Disassembly of section .exceptions:

00000020 <alt_exception>:
         * Process an exception.  For all exceptions we must preserve all
         * caller saved registers on the stack (See the Nios2 ABI
         * documentation for details).
         */

        addi  sp, sp, -76
  20:	deffed04 	addi	sp,sp,-76

#endif

#endif

        stw   ra,  0(sp)
  24:	dfc00015 	stw	ra,0(sp)
        /*
         * Leave a gap in the stack frame at 4(sp) for the muldiv handler to
         * store zero into.
         */

        stw   r1,   8(sp)
  28:	d8400215 	stw	at,8(sp)
        stw   r2,  12(sp)
  2c:	d8800315 	stw	r2,12(sp)
        stw   r3,  16(sp)
  30:	d8c00415 	stw	r3,16(sp)
        stw   r4,  20(sp)
  34:	d9000515 	stw	r4,20(sp)
        stw   r5,  24(sp)
  38:	d9400615 	stw	r5,24(sp)
        stw   r6,  28(sp)
  3c:	d9800715 	stw	r6,28(sp)
        stw   r7,  32(sp)
  40:	d9c00815 	stw	r7,32(sp)

        rdctl r5, estatus
  44:	000b307a 	rdctl	r5,estatus

        stw   r8,  36(sp)
  48:	da000915 	stw	r8,36(sp)
        stw   r9,  40(sp)
  4c:	da400a15 	stw	r9,40(sp)
        stw   r10, 44(sp)
  50:	da800b15 	stw	r10,44(sp)
        stw   r11, 48(sp)
  54:	dac00c15 	stw	r11,48(sp)
        stw   r12, 52(sp)
  58:	db000d15 	stw	r12,52(sp)
        stw   r13, 56(sp)
  5c:	db400e15 	stw	r13,56(sp)
        stw   r14, 60(sp)
  60:	db800f15 	stw	r14,60(sp)
        stw   r15, 64(sp)
  64:	dbc01015 	stw	r15,64(sp)
        /*
         * ea-4 contains the address of the instruction being executed
         * when the exception occured. For interrupt exceptions, we will
         * will be re-issue the isntruction. Store it in 72(sp)
         */
        stw   r5,  68(sp)  /* estatus */
  68:	d9401115 	stw	r5,68(sp)
        addi  r15, ea, -4  /* instruction that caused exception */
  6c:	ebffff04 	addi	r15,ea,-4
        stw   r15,  72(sp)
  70:	dbc01215 	stw	r15,72(sp)
#else
        /*
         * Test to see if the exception was a software exception or caused 
         * by an external interrupt, and vector accordingly.
         */
        rdctl r4, ipending
  74:	0009313a 	rdctl	r4,ipending
        andi  r2, r5, 1
  78:	2880004c 	andi	r2,r5,1
        beq   r2, zero, .Lnot_irq
  7c:	10000326 	beq	r2,zero,8c <alt_exception+0x6c>
        beq   r4, zero, .Lnot_irq
  80:	20000226 	beq	r4,zero,8c <alt_exception+0x6c>
        /*
         * Now that all necessary registers have been preserved, call 
         * alt_irq_handler() to process the interrupts.
         */

        call alt_irq_handler
  84:	00000ec0 	call	ec <alt_irq_handler>

        .section .exceptions.irqreturn, "xa"

        br    .Lexception_exit
  88:	00000306 	br	98 <alt_exception+0x78>
         * upon completion, so we write ea (address of instruction *after*
         * the one where the exception occured) into 72(sp). The actual
         * instruction that caused the exception is written in r2, which these
         * handlers will utilize.
         */
        stw   ea,  72(sp)  /* Don't re-issue */
  8c:	df401215 	stw	ea,72(sp)
        ldw   r2, -4(ea)   /* Instruction that caused exception */
  90:	e8bfff17 	ldw	r2,-4(ea)
#ifdef NIOS2_HAS_DEBUG_STUB
       /*
        *  Either tell the user now (if there is a debugger attached) or go into
        *  the debug monitor which will loop until a debugger is attached.
        */
        break
  94:	003da03a 	break	0
        /* 
         * Restore the saved registers, so that all general purpose registers 
         * have been restored to their state at the time the interrupt occured.
         */

        ldw   r5,  68(sp)
  98:	d9401117 	ldw	r5,68(sp)
        ldw   ea,  72(sp)  /* This becomes the PC once eret is executed */
  9c:	df401217 	ldw	ea,72(sp)
        ldw   ra,   0(sp)
  a0:	dfc00017 	ldw	ra,0(sp)

        wrctl estatus, r5
  a4:	2801707a 	wrctl	estatus,r5

        ldw   r1,   8(sp)
  a8:	d8400217 	ldw	at,8(sp)
        ldw   r2,  12(sp)
  ac:	d8800317 	ldw	r2,12(sp)
        ldw   r3,  16(sp)
  b0:	d8c00417 	ldw	r3,16(sp)
        ldw   r4,  20(sp)
  b4:	d9000517 	ldw	r4,20(sp)
        ldw   r5,  24(sp)
  b8:	d9400617 	ldw	r5,24(sp)
        ldw   r6,  28(sp)
  bc:	d9800717 	ldw	r6,28(sp)
        ldw   r7,  32(sp)
  c0:	d9c00817 	ldw	r7,32(sp)
#ifdef ALT_STACK_CHECK
        ldw   et, %gprel(alt_exception_old_stack_limit)(gp)
#endif
#endif

        ldw   r8,  36(sp)
  c4:	da000917 	ldw	r8,36(sp)
        ldw   r9,  40(sp)
  c8:	da400a17 	ldw	r9,40(sp)
        ldw   r10, 44(sp)
  cc:	da800b17 	ldw	r10,44(sp)
        ldw   r11, 48(sp)
  d0:	dac00c17 	ldw	r11,48(sp)
        ldw   r12, 52(sp)
  d4:	db000d17 	ldw	r12,52(sp)
        ldw   r13, 56(sp)
  d8:	db400e17 	ldw	r13,56(sp)
        ldw   r14, 60(sp)
  dc:	db800f17 	ldw	r14,60(sp)
        ldw   r15, 64(sp)
  e0:	dbc01017 	ldw	r15,64(sp)
#endif

        ldw   sp,  76(sp)

#else
        addi  sp, sp, 76
  e4:	dec01304 	addi	sp,sp,76

        /*
         * Return to the interrupted instruction.
         */

        eret
  e8:	ef80083a 	eret

000000ec <alt_irq_handler>:
 * instruction is present if the macro ALT_CI_INTERRUPT_VECTOR defined.
 */

void alt_irq_handler (void) __attribute__ ((section (".exceptions")));
void alt_irq_handler (void)
{
  ec:	defff904 	addi	sp,sp,-28
  f0:	dfc00615 	stw	ra,24(sp)
  f4:	df000515 	stw	fp,20(sp)
  f8:	df000504 	addi	fp,sp,20
#ifndef NIOS2_EIC_PRESENT
static ALT_INLINE alt_u32 ALT_ALWAYS_INLINE alt_irq_pending (void)
{
  alt_u32 active;

  NIOS2_READ_IPENDING (active);
  fc:	0005313a 	rdctl	r2,ipending
 100:	e0bffc15 	stw	r2,-16(fp)

  return active;
 104:	e0bffc17 	ldw	r2,-16(fp)
   * Consider the case where the high priority interupt is asserted during
   * the interrupt entry sequence for a lower priority interrupt to see why
   * this is the case.
   */

  active = alt_irq_pending ();
 108:	e0bfff15 	stw	r2,-4(fp)

  do
  {
    i = 0;
 10c:	e03ffd15 	stw	zero,-12(fp)
    mask = 1;
 110:	00800044 	movi	r2,1
 114:	e0bffe15 	stw	r2,-8(fp)
     * called to clear the interrupt condition.
     */

    do
    {
      if (active & mask)
 118:	e0ffff17 	ldw	r3,-4(fp)
 11c:	e0bffe17 	ldw	r2,-8(fp)
 120:	1884703a 	and	r2,r3,r2
 124:	1005003a 	cmpeq	r2,r2,zero
 128:	1000161e 	bne	r2,zero,184 <alt_irq_handler+0x98>
      { 
#ifdef ALT_ENHANCED_INTERRUPT_API_PRESENT
        alt_irq[i].handler(alt_irq[i].context); 
 12c:	e0bffd17 	ldw	r2,-12(fp)
 130:	00c00074 	movhi	r3,1
 134:	18c8d704 	addi	r3,r3,9052
 138:	100490fa 	slli	r2,r2,3
 13c:	10c5883a 	add	r2,r2,r3
 140:	11400017 	ldw	r5,0(r2)
 144:	e0bffd17 	ldw	r2,-12(fp)
 148:	00c00074 	movhi	r3,1
 14c:	18c8d704 	addi	r3,r3,9052
 150:	100490fa 	slli	r2,r2,3
 154:	10c5883a 	add	r2,r2,r3
 158:	10800104 	addi	r2,r2,4
 15c:	11000017 	ldw	r4,0(r2)
 160:	283ee83a 	callr	r5
#ifndef NIOS2_EIC_PRESENT
static ALT_INLINE alt_u32 ALT_ALWAYS_INLINE alt_irq_pending (void)
{
  alt_u32 active;

  NIOS2_READ_IPENDING (active);
 164:	0005313a 	rdctl	r2,ipending
 168:	e0bffb15 	stw	r2,-20(fp)

  return active;
 16c:	e0bffb17 	ldw	r2,-20(fp)
      mask <<= 1;
      i++;

    } while (1);

    active = alt_irq_pending ();
 170:	e0bfff15 	stw	r2,-4(fp)
    
  } while (active);
 174:	e0bfff17 	ldw	r2,-4(fp)
 178:	1004c03a 	cmpne	r2,r2,zero
 17c:	103fe31e 	bne	r2,zero,10c <alt_irq_handler+0x20>
 180:	00000706 	br	1a0 <alt_irq_handler+0xb4>
#else
        alt_irq[i].handler(alt_irq[i].context, i); 
#endif
        break;
      }
      mask <<= 1;
 184:	e0bffe17 	ldw	r2,-8(fp)
 188:	1085883a 	add	r2,r2,r2
 18c:	e0bffe15 	stw	r2,-8(fp)
      i++;
 190:	e0bffd17 	ldw	r2,-12(fp)
 194:	10800044 	addi	r2,r2,1
 198:	e0bffd15 	stw	r2,-12(fp)

    } while (1);
 19c:	003fde06 	br	118 <alt_irq_handler+0x2c>
  /*
   * Notify the operating system that interrupt processing is complete.
   */ 

  ALT_OS_INT_EXIT();
}
 1a0:	e037883a 	mov	sp,fp
 1a4:	dfc00117 	ldw	ra,4(sp)
 1a8:	df000017 	ldw	fp,0(sp)
 1ac:	dec00204 	addi	sp,sp,8
 1b0:	f800283a 	ret

Disassembly of section .text:

000001b4 <_start>:

    /* Assume the data cache size is always a power of two. */
#if NIOS2_DCACHE_SIZE > 0x8000
    movhi r2, %hi(NIOS2_DCACHE_SIZE)
#else
    movui r2, NIOS2_DCACHE_SIZE
     1b4:	00810014 	movui	r2,1024
#endif

0:
    initd 0(r2)
     1b8:	10000033 	initd	0(r2)
    addi r2, r2, -NIOS2_DCACHE_LINE_SIZE
     1bc:	10bff804 	addi	r2,r2,-32
    bgt r2, zero, 0b
     1c0:	00bffd16 	blt	zero,r2,1b8 <_start+0x4>
#if (NIOS2_NUM_OF_SHADOW_REG_SETS == 0)    
    /*
     * Now that the caches are initialized, set up the stack pointer.
     * The value provided by the linker is assumed to be correctly aligned.
     */
    movhi sp, %hi(__alt_stack_pointer)
     1c4:	06c04434 	movhi	sp,272
    ori sp, sp, %lo(__alt_stack_pointer)
     1c8:	dec00014 	ori	sp,sp,0

    /* Set up the global pointer. */
    movhi gp, %hi(_gp)
     1cc:	06800074 	movhi	gp,1
    ori gp, gp, %lo(_gp)
     1d0:	d6a1b314 	ori	gp,gp,34508
 */
#ifndef ALT_SIM_OPTIMIZE
    /* Log that the BSS is about to be cleared. */
    ALT_LOG_PUTS(alt_log_msg_bss)

    movhi r2, %hi(__bss_start)
     1d4:	00800074 	movhi	r2,1
    ori r2, r2, %lo(__bss_start)
     1d8:	10889014 	ori	r2,r2,8768

    movhi r3, %hi(__bss_end)
     1dc:	00c00074 	movhi	r3,1
    ori r3, r3, %lo(__bss_end)
     1e0:	18c97b14 	ori	r3,r3,9708

    beq r2, r3, 1f
     1e4:	10c00326 	beq	r2,r3,1f4 <_start+0x40>

0:
    stw zero, (r2)
     1e8:	10000015 	stw	zero,0(r2)
    addi r2, r2, 4
     1ec:	10800104 	addi	r2,r2,4
    bltu r2, r3, 0b
     1f0:	10fffd36 	bltu	r2,r3,1e8 <_start+0x34>
     * section aren't defined until alt_load() has been called).
     */
    mov   et, zero
#endif

    call alt_load
     1f4:	000ad9c0 	call	ad9c <alt_load>

    /* Log that alt_main is about to be called. */
    ALT_LOG_PUTS(alt_log_msg_alt_main)

    /* Call the C entry point. It should never return. */
    call alt_main
     1f8:	000afd80 	call	afd8 <alt_main>

000001fc <alt_after_alt_main>:

    /* Wait in infinite loop in case alt_main does return. */
alt_after_alt_main:
    br alt_after_alt_main
     1fc:	003fff06 	br	1fc <alt_after_alt_main>

00000200 <init>:

#include "head.h"

void init(void)
{
     200:	deffff04 	addi	sp,sp,-4
     204:	df000015 	stw	fp,0(sp)
     208:	d839883a 	mov	fp,sp
	//c = 33;
	//versionName[100] = "Nano Board Version 1.0\n";
	pwm_enable = (volatile unsigned int*)(0x80000000 | PWM_ENABLE);
     20c:	00a10034 	movhi	r2,33792
     210:	10841004 	addi	r2,r2,4160
     214:	d0a6f115 	stw	r2,-25660(gp)

	pFrontRightDutySet = (volatile unsigned int*)(0x80000000 | FRONT_RIGHT_DUTY_SET);
     218:	00a10034 	movhi	r2,33792
     21c:	10841104 	addi	r2,r2,4164
     220:	d0a6e115 	stw	r2,-25724(gp)
	pRearRightDutySet = (volatile unsigned int*)(0x80000000 | REAR_RIGHT_DUTY_SET);
     224:	00a10034 	movhi	r2,33792
     228:	10841204 	addi	r2,r2,4168
     22c:	d0a6f015 	stw	r2,-25664(gp)
	pRearLeftDutySet = (volatile unsigned int*)(0x80000000 | REAR_LEFT_DUTY_SET);
     230:	00a10034 	movhi	r2,33792
     234:	10841304 	addi	r2,r2,4172
     238:	d0a6ef15 	stw	r2,-25668(gp)
	pFrontLeftDutySet = (volatile unsigned int*)(0x80000000 | FRONT_LEFT_DUTY_SET);
     23c:	00a10034 	movhi	r2,33792
     240:	10841404 	addi	r2,r2,4176
     244:	d0a6ea15 	stw	r2,-25688(gp)

	pFrontRightEncSet = (volatile unsigned int*)(0x80000000 |FRONT_RIGHT_ENC_SET);
     248:	00a10034 	movhi	r2,33792
     24c:	10841504 	addi	r2,r2,4180
     250:	d0a6ed15 	stw	r2,-25676(gp)
	pRearRightEncSet = (volatile unsigned int*)(0x80000000 | REAR_RIGHT_ENC_SET);
     254:	00a10034 	movhi	r2,33792
     258:	10841604 	addi	r2,r2,4184
     25c:	d0a6e215 	stw	r2,-25720(gp)
	pRearLeftEncSet = (volatile unsigned int*)(0x80000000 | REAR_LEFT_ENC_SET);
     260:	00a10034 	movhi	r2,33792
     264:	10841704 	addi	r2,r2,4188
     268:	d0a6ec15 	stw	r2,-25680(gp)
	pFrontLeftEncSet = (volatile unsigned int*)(0x80000000 | FRONT_LEFT_ENC_SET);
     26c:	00a10034 	movhi	r2,33792
     270:	10841804 	addi	r2,r2,4192
     274:	d0a6e615 	stw	r2,-25704(gp)

	pFrontRightEncRead = (volatile unsigned int*)(0x80000000 |FRONT_RIGHT_ENC_READ);
     278:	00a10034 	movhi	r2,33792
     27c:	10841904 	addi	r2,r2,4196
     280:	d0a6e715 	stw	r2,-25700(gp)
	pRearRightEncRead = (volatile unsigned int*)(0x80000000 |REAR_RIGHT_ENC_READ);
     284:	00a10034 	movhi	r2,33792
     288:	10841a04 	addi	r2,r2,4200
     28c:	d0a6de15 	stw	r2,-25736(gp)
	pRearLeftEncRead = (volatile unsigned int*)(0x80000000 |REAR_LEFT_ENC_READ);
     290:	00a10034 	movhi	r2,33792
     294:	10841b04 	addi	r2,r2,4204
     298:	d0a6ee15 	stw	r2,-25672(gp)
	pFrontLeftEncRead = (volatile unsigned int*)(0x80000000 | FRONT_LEFT_ENC_READ);
     29c:	00a10034 	movhi	r2,33792
     2a0:	10841c04 	addi	r2,r2,4208
     2a4:	d0a6df15 	stw	r2,-25732(gp)

	uPwmPeriod = NIOS2_CPU_FREQ/PWM_RESOLUTION;
     2a8:	0089c404 	movi	r2,10000
     2ac:	d0a6e915 	stw	r2,-25692(gp)

	pHc_sr04 = (volatile unsigned int*)(HC_SR04_0_BASE | 0x80000000);
     2b0:	00a10034 	movhi	r2,33792
     2b4:	10840004 	addi	r2,r2,4096
     2b8:	d0a6e015 	stw	r2,-25728(gp)
	pUltraSoundArray = (volatile unsigned int*)(ULTRA_SOUND_0_READING_ADDR | 0x80000000);
     2bc:	00a10034 	movhi	r2,33792
     2c0:	10840104 	addi	r2,r2,4100
     2c4:	d0a6e515 	stw	r2,-25708(gp)

    pI2C = (volatile unsigned char*)(I2C_SLAVE_ADDR);
     2c8:	00a10034 	movhi	r2,33792
     2cc:	10842004 	addi	r2,r2,4224
     2d0:	d0a6eb15 	stw	r2,-25684(gp)
    pI2CReg = (volatile unsigned char*)(I2C_REG_ADDR);
     2d4:	00a10034 	movhi	r2,33792
     2d8:	10842044 	addi	r2,r2,4225
     2dc:	d0a6f315 	stw	r2,-25652(gp)
    pI2CRegWriteData = (volatile unsigned char*)(I2C_REG_WRITE_DATA);
     2e0:	00a10034 	movhi	r2,33792
     2e4:	10842084 	addi	r2,r2,4226
     2e8:	d0a6e315 	stw	r2,-25716(gp)
    pI2CDataLen = (volatile unsigned char*)(I2C_DATALENGTH_ADDR);
     2ec:	00a10034 	movhi	r2,33792
     2f0:	108420c4 	addi	r2,r2,4227
     2f4:	d0a6e815 	stw	r2,-25696(gp)
    pI2CCmd = (volatile unsigned char*)(I2C_CMD_ADDR);
     2f8:	00a10034 	movhi	r2,33792
     2fc:	10842104 	addi	r2,r2,4228
     300:	d0a6f215 	stw	r2,-25656(gp)
    pI2CDataAvailable = (volatile unsigned char*)(I2C_DATA_AVAILABLE_ADDR);
     304:	00a10034 	movhi	r2,33792
     308:	10842204 	addi	r2,r2,4232
     30c:	d0a6dd15 	stw	r2,-25740(gp)
}
     310:	e037883a 	mov	sp,fp
     314:	df000017 	ldw	fp,0(sp)
     318:	dec00104 	addi	sp,sp,4
     31c:	f800283a 	ret

00000320 <delay>:


void delay (volatile unsigned int del)
{
     320:	defffe04 	addi	sp,sp,-8
     324:	df000115 	stw	fp,4(sp)
     328:	df000104 	addi	fp,sp,4
     32c:	e13fff15 	stw	r4,-4(fp)
	while (del != 0)
     330:	00000306 	br	340 <delay+0x20>
	{
		del --;
     334:	e0bfff17 	ldw	r2,-4(fp)
     338:	10bfffc4 	addi	r2,r2,-1
     33c:	e0bfff15 	stw	r2,-4(fp)
}


void delay (volatile unsigned int del)
{
	while (del != 0)
     340:	e0bfff17 	ldw	r2,-4(fp)
     344:	1004c03a 	cmpne	r2,r2,zero
     348:	103ffa1e 	bne	r2,zero,334 <delay+0x14>
	{
		del --;
	}
}
     34c:	e037883a 	mov	sp,fp
     350:	df000017 	ldw	fp,0(sp)
     354:	dec00104 	addi	sp,sp,4
     358:	f800283a 	ret

0000035c <set_duty_cycle>:

unsigned int set_duty_cycle(volatile unsigned int *pTargetedWheel, unsigned int duty)
{
     35c:	defffb04 	addi	sp,sp,-20
     360:	dfc00415 	stw	ra,16(sp)
     364:	df000315 	stw	fp,12(sp)
     368:	df000304 	addi	fp,sp,12
     36c:	e13ffd15 	stw	r4,-12(fp)
     370:	e17ffe15 	stw	r5,-8(fp)
	if (duty > 100 || duty < 0) return(0);
     374:	e0bffe17 	ldw	r2,-8(fp)
     378:	10801970 	cmpltui	r2,r2,101
     37c:	1000031e 	bne	r2,zero,38c <set_duty_cycle+0x30>
     380:	0005883a 	mov	r2,zero
     384:	e0bfff15 	stw	r2,-4(fp)
     388:	00000906 	br	3b0 <set_duty_cycle+0x54>

	*pTargetedWheel = (uPwmPeriod/100) * duty; // duty is a positive number. Divide by 100 to consider percentage
     38c:	d126e917 	ldw	r4,-25692(gp)
     390:	01401904 	movi	r5,100
     394:	00010e80 	call	10e8 <__udivsi3>
     398:	1007883a 	mov	r3,r2
     39c:	e0bffe17 	ldw	r2,-8(fp)
     3a0:	1887383a 	mul	r3,r3,r2
     3a4:	e0bffd17 	ldw	r2,-12(fp)
     3a8:	10c00015 	stw	r3,0(r2)
}
     3ac:	00000106 	br	3b4 <set_duty_cycle+0x58>
     3b0:	e0bfff17 	ldw	r2,-4(fp)
     3b4:	e037883a 	mov	sp,fp
     3b8:	dfc00117 	ldw	ra,4(sp)
     3bc:	df000017 	ldw	fp,0(sp)
     3c0:	dec00204 	addi	sp,sp,8
     3c4:	f800283a 	ret

000003c8 <MeasureDistance>:

unsigned int MeasureDistance(unsigned int ch)
{
     3c8:	defffc04 	addi	sp,sp,-16
     3cc:	dfc00315 	stw	ra,12(sp)
     3d0:	df000215 	stw	fp,8(sp)
     3d4:	df000204 	addi	fp,sp,8
     3d8:	e13fff15 	stw	r4,-4(fp)
	float x = (float)pUltraSoundArray[ch] * 330000/ALT_CPU_FREQ;
     3dc:	e0bfff17 	ldw	r2,-4(fp)
     3e0:	1085883a 	add	r2,r2,r2
     3e4:	1085883a 	add	r2,r2,r2
     3e8:	1007883a 	mov	r3,r2
     3ec:	d0a6e517 	ldw	r2,-25708(gp)
     3f0:	1885883a 	add	r2,r3,r2
     3f4:	11000017 	ldw	r4,0(r2)
     3f8:	0000eec0 	call	eec <__floatunsisf>
     3fc:	1009883a 	mov	r4,r2
     400:	01522874 	movhi	r5,18593
     404:	29488004 	addi	r5,r5,8704
     408:	0000a8c0 	call	a8c <__mulsf3>
     40c:	1009883a 	mov	r4,r2
     410:	01532ff4 	movhi	r5,19647
     414:	296f0804 	addi	r5,r5,-17376
     418:	0000c6c0 	call	c6c <__divsf3>
     41c:	e0bffe15 	stw	r2,-8(fp)
	return( (unsigned int)(x/2) );
     420:	e13ffe17 	ldw	r4,-8(fp)
     424:	01500034 	movhi	r5,16384
     428:	0000c6c0 	call	c6c <__divsf3>
     42c:	1009883a 	mov	r4,r2
     430:	00007640 	call	764 <__fixunssfsi>
}
     434:	e037883a 	mov	sp,fp
     438:	dfc00117 	ldw	ra,4(sp)
     43c:	df000017 	ldw	fp,0(sp)
     440:	dec00204 	addi	sp,sp,8
     444:	f800283a 	ret

00000448 <I2CWrite>:

void I2CWrite(unsigned char I2CAddr, unsigned char RegAddr, unsigned char data)
{
     448:	defffc04 	addi	sp,sp,-16
     44c:	df000315 	stw	fp,12(sp)
     450:	df000304 	addi	fp,sp,12
     454:	e13ffd05 	stb	r4,-12(fp)
     458:	e17ffe05 	stb	r5,-8(fp)
     45c:	e1bfff05 	stb	r6,-4(fp)
	*pI2C = I2CAddr; // FIrst write which I2C module is being addressed. MPU or HMC
     460:	d0e6eb17 	ldw	r3,-25684(gp)
     464:	e0bffd03 	ldbu	r2,-12(fp)
     468:	18800005 	stb	r2,0(r3)
	*pI2CReg = RegAddr; // write the address of register to which you want to write
     46c:	d0e6f317 	ldw	r3,-25652(gp)
     470:	e0bffe03 	ldbu	r2,-8(fp)
     474:	18800005 	stb	r2,0(r3)
	*pI2CRegWriteData = data; // write the data
     478:	d0e6e317 	ldw	r3,-25716(gp)
     47c:	e0bfff03 	ldbu	r2,-4(fp)
     480:	18800005 	stb	r2,0(r3)
	*pI2CDataLen = 1; // currently only 1 is supported for write access
     484:	d0e6e817 	ldw	r3,-25696(gp)
     488:	00800044 	movi	r2,1
     48c:	18800005 	stb	r2,0(r3)
	*pI2CCmd = (I2C_WRITE_CMD_MASK | I2C_START_CMD_MASK); // give write+start command
     490:	d0e6f217 	ldw	r3,-25656(gp)
     494:	00800084 	movi	r2,2
     498:	18800005 	stb	r2,0(r3)
}
     49c:	e037883a 	mov	sp,fp
     4a0:	df000017 	ldw	fp,0(sp)
     4a4:	dec00104 	addi	sp,sp,4
     4a8:	f800283a 	ret

000004ac <I2CRead>:

void I2CRead(unsigned char I2CAddr, unsigned char RegAddr, unsigned int len, char* cBuff)
{
     4ac:	defffa04 	addi	sp,sp,-24
     4b0:	df000515 	stw	fp,20(sp)
     4b4:	df000504 	addi	fp,sp,20
     4b8:	e1bffe15 	stw	r6,-8(fp)
     4bc:	e1ffff15 	stw	r7,-4(fp)
     4c0:	e13ffc05 	stb	r4,-16(fp)
     4c4:	e17ffd05 	stb	r5,-12(fp)
	unsigned int i = 0;
     4c8:	e03ffb15 	stw	zero,-20(fp)

	*pI2C = I2CAddr; //FIrst write which I2C module is being addressed. MPU or HMC
     4cc:	d0e6eb17 	ldw	r3,-25684(gp)
     4d0:	e0bffc03 	ldbu	r2,-16(fp)
     4d4:	18800005 	stb	r2,0(r3)
	*pI2CReg = RegAddr; // give the address of register from which you want to read in burst fashion
     4d8:	d0e6f317 	ldw	r3,-25652(gp)
     4dc:	e0bffd03 	ldbu	r2,-12(fp)
     4e0:	18800005 	stb	r2,0(r3)
	*pI2CDataLen = len; // number of bytes you want to read
     4e4:	d0e6e817 	ldw	r3,-25696(gp)
     4e8:	e0bffe17 	ldw	r2,-8(fp)
     4ec:	18800005 	stb	r2,0(r3)
	*pI2CCmd = (I2C_READ_CMD_MASK | I2C_START_CMD_MASK); // give read+start command
     4f0:	d0e6f217 	ldw	r3,-25656(gp)
     4f4:	008000c4 	movi	r2,3
     4f8:	18800005 	stb	r2,0(r3)

	/*The CPU is free to do its work until the following flag is set. The HW module will do a burst access and read the number of requested bytes
	 * from the slow I2C slave and keep it onchip in a FIFO. Once the flag is set, the data can be read from the FIFO rapidly*/
	while((*pI2CDataAvailable != 0x1));
     4fc:	d0a6dd17 	ldw	r2,-25740(gp)
     500:	10800003 	ldbu	r2,0(r2)
     504:	10803fcc 	andi	r2,r2,255
     508:	10800058 	cmpnei	r2,r2,1
     50c:	103ffb1e 	bne	r2,zero,4fc <I2CRead+0x50>

	for (i = 0; i < len; i++)
     510:	e03ffb15 	stw	zero,-20(fp)
     514:	00000906 	br	53c <I2CRead+0x90>
	{
		cBuff[i] = *pI2C;
     518:	e0fffb17 	ldw	r3,-20(fp)
     51c:	e0bfff17 	ldw	r2,-4(fp)
     520:	1887883a 	add	r3,r3,r2
     524:	d0a6eb17 	ldw	r2,-25684(gp)
     528:	10800003 	ldbu	r2,0(r2)
     52c:	18800005 	stb	r2,0(r3)

	/*The CPU is free to do its work until the following flag is set. The HW module will do a burst access and read the number of requested bytes
	 * from the slow I2C slave and keep it onchip in a FIFO. Once the flag is set, the data can be read from the FIFO rapidly*/
	while((*pI2CDataAvailable != 0x1));

	for (i = 0; i < len; i++)
     530:	e0bffb17 	ldw	r2,-20(fp)
     534:	10800044 	addi	r2,r2,1
     538:	e0bffb15 	stw	r2,-20(fp)
     53c:	e0fffb17 	ldw	r3,-20(fp)
     540:	e0bffe17 	ldw	r2,-8(fp)
     544:	18bff436 	bltu	r3,r2,518 <I2CRead+0x6c>
	{
		cBuff[i] = *pI2C;
	}

	return;
}
     548:	e037883a 	mov	sp,fp
     54c:	df000017 	ldw	fp,0(sp)
     550:	dec00104 	addi	sp,sp,4
     554:	f800283a 	ret

00000558 <main>:
	true,
	false
} bool_t;

int main()
{
     558:	deffe804 	addi	sp,sp,-96
     55c:	dfc01715 	stw	ra,92(sp)
     560:	df001615 	stw	fp,88(sp)
     564:	df001604 	addi	fp,sp,88
	init();
     568:	00002000 	call	200 <init>
	unsigned int i = 0;
     56c:	e03ff315 	stw	zero,-52(fp)
	unsigned int uiGapStartEnc = 0;
     570:	e03ff215 	stw	zero,-56(fp)
	unsigned int uiSouthEastDis = 0;
     574:	e03ff115 	stw	zero,-60(fp)
	short AcX, AcY, AcZ, Tmp, GyX, GyY, GyZ, x, y, z;
	char cBuff[32];
	bool_t bGapStarted = false;
     578:	00800044 	movi	r2,1
     57c:	e0bfeb15 	stw	r2,-84(fp)
	ParkingStateType_t cs = Ready;
     580:	e03fea15 	stw	zero,-88(fp)
	*pwm_enable = 0;
     584:	d0a6f117 	ldw	r2,-25660(gp)
     588:	10000015 	stw	zero,0(r2)

	printf("s\n");
     58c:	01000074 	movhi	r4,1
     590:	213a0604 	addi	r4,r4,-6120
     594:	00015f80 	call	15f8 <puts>
	
#ifdef MOTOR_TEST
	volatile unsigned int fr, rr, rl, fl;
	set_duty_cycle(pFrontRightDutySet, 50);
     598:	d126e117 	ldw	r4,-25724(gp)
     59c:	01400c84 	movi	r5,50
     5a0:	000035c0 	call	35c <set_duty_cycle>
	set_duty_cycle(pRearRightDutySet, 50);
     5a4:	d126f017 	ldw	r4,-25664(gp)
     5a8:	01400c84 	movi	r5,50
     5ac:	000035c0 	call	35c <set_duty_cycle>
	set_duty_cycle(pRearLeftDutySet, 50);
     5b0:	d126ef17 	ldw	r4,-25668(gp)
     5b4:	01400c84 	movi	r5,50
     5b8:	000035c0 	call	35c <set_duty_cycle>
	set_duty_cycle(pFrontLeftDutySet, 50);
     5bc:	d126ea17 	ldw	r4,-25688(gp)
     5c0:	01400c84 	movi	r5,50
     5c4:	000035c0 	call	35c <set_duty_cycle>

	*pwm_enable = (ALL_WHEEL_FWD_MASK | ENABLE_ENC_MASK );
     5c8:	d0e6f117 	ldw	r3,-25660(gp)
     5cc:	00800074 	movhi	r2,1
     5d0:	10801544 	addi	r2,r2,85
     5d4:	18800015 	stw	r2,0(r3)
	delay(10000000);
     5d8:	01002674 	movhi	r4,153
     5dc:	2125a004 	addi	r4,r4,-27008
     5e0:	00003200 	call	320 <delay>
    *pwm_enable = PAUSE_ENC_MASK;
     5e4:	d0e6f117 	ldw	r3,-25660(gp)
     5e8:	008000b4 	movhi	r2,2
     5ec:	18800015 	stw	r2,0(r3)

	fr = *pFrontRightEncRead;
     5f0:	d0a6e717 	ldw	r2,-25700(gp)
     5f4:	10800017 	ldw	r2,0(r2)
     5f8:	e0bffc15 	stw	r2,-16(fp)
	rr = *pRearRightEncRead;
     5fc:	d0a6de17 	ldw	r2,-25736(gp)
     600:	10800017 	ldw	r2,0(r2)
     604:	e0bffd15 	stw	r2,-12(fp)
	rl = *pRearLeftEncRead;
     608:	d0a6ee17 	ldw	r2,-25672(gp)
     60c:	10800017 	ldw	r2,0(r2)
     610:	e0bffe15 	stw	r2,-8(fp)
	fl = *pFrontLeftEncRead;
     614:	d0a6df17 	ldw	r2,-25732(gp)
     618:	10800017 	ldw	r2,0(r2)
     61c:	e0bfff15 	stw	r2,-4(fp)
	*pwm_enable = 0;
     620:	d0a6f117 	ldw	r2,-25660(gp)
     624:	10000015 	stw	zero,0(r2)

	printf("Front right = %u\n", fr);
     628:	e17ffc17 	ldw	r5,-16(fp)
     62c:	01000074 	movhi	r4,1
     630:	213a0704 	addi	r4,r4,-6116
     634:	00014e00 	call	14e0 <printf>
	printf("rear right = %u\n", rr);
     638:	e17ffd17 	ldw	r5,-12(fp)
     63c:	01000074 	movhi	r4,1
     640:	213a0c04 	addi	r4,r4,-6096
     644:	00014e00 	call	14e0 <printf>
	printf("rear left = %u\n", rl);
     648:	e17ffe17 	ldw	r5,-8(fp)
     64c:	01000074 	movhi	r4,1
     650:	213a1104 	addi	r4,r4,-6076
     654:	00014e00 	call	14e0 <printf>
	printf("Front left = %u\n", fl);
     658:	e17fff17 	ldw	r5,-4(fp)
     65c:	01000074 	movhi	r4,1
     660:	213a1504 	addi	r4,r4,-6060
     664:	00014e00 	call	14e0 <printf>

	printf("Restarting the same number of rotations\n");
     668:	01000074 	movhi	r4,1
     66c:	213a1a04 	addi	r4,r4,-6040
     670:	00015f80 	call	15f8 <puts>

	delay(100000);
     674:	010000b4 	movhi	r4,2
     678:	2121a804 	addi	r4,r4,-31072
     67c:	00003200 	call	320 <delay>


	*pFrontRightEncSet = fr;
     680:	d0e6ed17 	ldw	r3,-25676(gp)
     684:	e0bffc17 	ldw	r2,-16(fp)
     688:	18800015 	stw	r2,0(r3)
	*pRearRightEncSet = rr;
     68c:	d0e6e217 	ldw	r3,-25720(gp)
     690:	e0bffd17 	ldw	r2,-12(fp)
     694:	18800015 	stw	r2,0(r3)
	*pRearLeftEncSet = rl;
     698:	d0e6ec17 	ldw	r3,-25680(gp)
     69c:	e0bffe17 	ldw	r2,-8(fp)
     6a0:	18800015 	stw	r2,0(r3)
	*pFrontLeftEncSet = fl;
     6a4:	d0e6e617 	ldw	r3,-25704(gp)
     6a8:	e0bfff17 	ldw	r2,-4(fp)
     6ac:	18800015 	stw	r2,0(r3)

	*pwm_enable = (ALL_WHEEL_FWD_MASK | PLAY_BACK_MASK | ENABLE_ENC_MASK );
     6b0:	d0e6f117 	ldw	r3,-25660(gp)
     6b4:	00800074 	movhi	r2,1
     6b8:	10805544 	addi	r2,r2,341
     6bc:	18800015 	stw	r2,0(r3)

	while (!(*pwm_enable & WHEEL_READY_MASK));
     6c0:	d0a6f117 	ldw	r2,-25660(gp)
     6c4:	10800017 	ldw	r2,0(r2)
     6c8:	10a0000c 	andi	r2,r2,32768
     6cc:	1005003a 	cmpeq	r2,r2,zero
     6d0:	103ffb1e 	bne	r2,zero,6c0 <main+0x168>
	fr = *pFrontRightEncRead;
     6d4:	d0a6e717 	ldw	r2,-25700(gp)
     6d8:	10800017 	ldw	r2,0(r2)
     6dc:	e0bffc15 	stw	r2,-16(fp)
	rr = *pRearRightEncRead;
     6e0:	d0a6de17 	ldw	r2,-25736(gp)
     6e4:	10800017 	ldw	r2,0(r2)
     6e8:	e0bffd15 	stw	r2,-12(fp)
	rl = *pRearLeftEncRead;
     6ec:	d0a6ee17 	ldw	r2,-25672(gp)
     6f0:	10800017 	ldw	r2,0(r2)
     6f4:	e0bffe15 	stw	r2,-8(fp)
	fl = *pFrontLeftEncRead;
     6f8:	d0a6df17 	ldw	r2,-25732(gp)
     6fc:	10800017 	ldw	r2,0(r2)
     700:	e0bfff15 	stw	r2,-4(fp)
	*pwm_enable = 0;
     704:	d0a6f117 	ldw	r2,-25660(gp)
     708:	10000015 	stw	zero,0(r2)

	printf("Front right = %u\n", fr);
     70c:	e17ffc17 	ldw	r5,-16(fp)
     710:	01000074 	movhi	r4,1
     714:	213a0704 	addi	r4,r4,-6116
     718:	00014e00 	call	14e0 <printf>
	printf("rear right = %u\n", rr);
     71c:	e17ffd17 	ldw	r5,-12(fp)
     720:	01000074 	movhi	r4,1
     724:	213a0c04 	addi	r4,r4,-6096
     728:	00014e00 	call	14e0 <printf>
	printf("rear left = %u\n", rl);
     72c:	e17ffe17 	ldw	r5,-8(fp)
     730:	01000074 	movhi	r4,1
     734:	213a1104 	addi	r4,r4,-6076
     738:	00014e00 	call	14e0 <printf>
	printf("Front left = %u\n", fl);
     73c:	e17fff17 	ldw	r5,-4(fp)
     740:	01000074 	movhi	r4,1
     744:	213a1504 	addi	r4,r4,-6060
     748:	00014e00 	call	14e0 <printf>
		delay(10000000);
	}

#endif

	return 0;
     74c:	0005883a 	mov	r2,zero
}
     750:	e037883a 	mov	sp,fp
     754:	dfc00117 	ldw	ra,4(sp)
     758:	df000017 	ldw	fp,0(sp)
     75c:	dec00204 	addi	sp,sp,8
     760:	f800283a 	ret

00000764 <__fixunssfsi>:
     764:	defffd04 	addi	sp,sp,-12
     768:	dc000015 	stw	r16,0(sp)
     76c:	0413c034 	movhi	r16,20224
     770:	800b883a 	mov	r5,r16
     774:	dc400115 	stw	r17,4(sp)
     778:	dfc00215 	stw	ra,8(sp)
     77c:	2023883a 	mov	r17,r4
     780:	0000de00 	call	de0 <__gesf2>
     784:	800b883a 	mov	r5,r16
     788:	8809883a 	mov	r4,r17
     78c:	10000a16 	blt	r2,zero,7b8 <__fixunssfsi+0x54>
     790:	00009b80 	call	9b8 <__subsf3>
     794:	1009883a 	mov	r4,r2
     798:	0000e580 	call	e58 <__fixsfsi>
     79c:	00e00034 	movhi	r3,32768
     7a0:	10c5883a 	add	r2,r2,r3
     7a4:	dfc00217 	ldw	ra,8(sp)
     7a8:	dc400117 	ldw	r17,4(sp)
     7ac:	dc000017 	ldw	r16,0(sp)
     7b0:	dec00304 	addi	sp,sp,12
     7b4:	f800283a 	ret
     7b8:	8809883a 	mov	r4,r17
     7bc:	0000e580 	call	e58 <__fixsfsi>
     7c0:	dfc00217 	ldw	ra,8(sp)
     7c4:	dc400117 	ldw	r17,4(sp)
     7c8:	dc000017 	ldw	r16,0(sp)
     7cc:	dec00304 	addi	sp,sp,12
     7d0:	f800283a 	ret

000007d4 <_fpadd_parts>:
     7d4:	21c00017 	ldw	r7,0(r4)
     7d8:	02000044 	movi	r8,1
     7dc:	41c0332e 	bgeu	r8,r7,8ac <_fpadd_parts+0xd8>
     7e0:	28800017 	ldw	r2,0(r5)
     7e4:	4080462e 	bgeu	r8,r2,900 <_fpadd_parts+0x12c>
     7e8:	00c00104 	movi	r3,4
     7ec:	38c06b26 	beq	r7,r3,99c <_fpadd_parts+0x1c8>
     7f0:	10c04326 	beq	r2,r3,900 <_fpadd_parts+0x12c>
     7f4:	00c00084 	movi	r3,2
     7f8:	10c02e26 	beq	r2,r3,8b4 <_fpadd_parts+0xe0>
     7fc:	38c04026 	beq	r7,r3,900 <_fpadd_parts+0x12c>
     800:	22800217 	ldw	r10,8(r4)
     804:	28c00217 	ldw	r3,8(r5)
     808:	23000317 	ldw	r12,12(r4)
     80c:	2a400317 	ldw	r9,12(r5)
     810:	50cfc83a 	sub	r7,r10,r3
     814:	3817883a 	mov	r11,r7
     818:	38004f16 	blt	r7,zero,958 <_fpadd_parts+0x184>
     81c:	008007c4 	movi	r2,31
     820:	11c03316 	blt	r2,r7,8f0 <_fpadd_parts+0x11c>
     824:	02c0540e 	bge	zero,r11,978 <_fpadd_parts+0x1a4>
     828:	41c4983a 	sll	r2,r8,r7
     82c:	49c6d83a 	srl	r3,r9,r7
     830:	10bfffc4 	addi	r2,r2,-1
     834:	4884703a 	and	r2,r9,r2
     838:	1004c03a 	cmpne	r2,r2,zero
     83c:	1892b03a 	or	r9,r3,r2
     840:	20c00117 	ldw	r3,4(r4)
     844:	28800117 	ldw	r2,4(r5)
     848:	18803c26 	beq	r3,r2,93c <_fpadd_parts+0x168>
     84c:	18002f26 	beq	r3,zero,90c <_fpadd_parts+0x138>
     850:	4b05c83a 	sub	r2,r9,r12
     854:	10004216 	blt	r2,zero,960 <_fpadd_parts+0x18c>
     858:	32800215 	stw	r10,8(r6)
     85c:	30800315 	stw	r2,12(r6)
     860:	30000115 	stw	zero,4(r6)
     864:	31000317 	ldw	r4,12(r6)
     868:	01d00034 	movhi	r7,16384
     86c:	39ffff84 	addi	r7,r7,-2
     870:	20bfffc4 	addi	r2,r4,-1
     874:	2007883a 	mov	r3,r4
     878:	38800836 	bltu	r7,r2,89c <_fpadd_parts+0xc8>
     87c:	31400217 	ldw	r5,8(r6)
     880:	18c9883a 	add	r4,r3,r3
     884:	20bfffc4 	addi	r2,r4,-1
     888:	297fffc4 	addi	r5,r5,-1
     88c:	2007883a 	mov	r3,r4
     890:	38bffb2e 	bgeu	r7,r2,880 <_fpadd_parts+0xac>
     894:	31400215 	stw	r5,8(r6)
     898:	31000315 	stw	r4,12(r6)
     89c:	008000c4 	movi	r2,3
     8a0:	30800015 	stw	r2,0(r6)
     8a4:	20001b16 	blt	r4,zero,914 <_fpadd_parts+0x140>
     8a8:	3009883a 	mov	r4,r6
     8ac:	2005883a 	mov	r2,r4
     8b0:	f800283a 	ret
     8b4:	38fffd1e 	bne	r7,r3,8ac <_fpadd_parts+0xd8>
     8b8:	31c00015 	stw	r7,0(r6)
     8bc:	20800117 	ldw	r2,4(r4)
     8c0:	30800115 	stw	r2,4(r6)
     8c4:	20c00217 	ldw	r3,8(r4)
     8c8:	30c00215 	stw	r3,8(r6)
     8cc:	20800317 	ldw	r2,12(r4)
     8d0:	30800315 	stw	r2,12(r6)
     8d4:	20c00117 	ldw	r3,4(r4)
     8d8:	28800117 	ldw	r2,4(r5)
     8dc:	3009883a 	mov	r4,r6
     8e0:	1886703a 	and	r3,r3,r2
     8e4:	2005883a 	mov	r2,r4
     8e8:	30c00115 	stw	r3,4(r6)
     8ec:	f800283a 	ret
     8f0:	1a801716 	blt	r3,r10,950 <_fpadd_parts+0x17c>
     8f4:	1815883a 	mov	r10,r3
     8f8:	0019883a 	mov	r12,zero
     8fc:	003fd006 	br	840 <_fpadd_parts+0x6c>
     900:	2809883a 	mov	r4,r5
     904:	2005883a 	mov	r2,r4
     908:	f800283a 	ret
     90c:	6245c83a 	sub	r2,r12,r9
     910:	003fd006 	br	854 <_fpadd_parts+0x80>
     914:	30800217 	ldw	r2,8(r6)
     918:	2006d07a 	srli	r3,r4,1
     91c:	2100004c 	andi	r4,r4,1
     920:	10800044 	addi	r2,r2,1
     924:	1906b03a 	or	r3,r3,r4
     928:	3009883a 	mov	r4,r6
     92c:	30800215 	stw	r2,8(r6)
     930:	2005883a 	mov	r2,r4
     934:	30c00315 	stw	r3,12(r6)
     938:	f800283a 	ret
     93c:	4b09883a 	add	r4,r9,r12
     940:	30c00115 	stw	r3,4(r6)
     944:	32800215 	stw	r10,8(r6)
     948:	31000315 	stw	r4,12(r6)
     94c:	003fd306 	br	89c <_fpadd_parts+0xc8>
     950:	0013883a 	mov	r9,zero
     954:	003fba06 	br	840 <_fpadd_parts+0x6c>
     958:	01cfc83a 	sub	r7,zero,r7
     95c:	003faf06 	br	81c <_fpadd_parts+0x48>
     960:	0089c83a 	sub	r4,zero,r2
     964:	00800044 	movi	r2,1
     968:	30800115 	stw	r2,4(r6)
     96c:	32800215 	stw	r10,8(r6)
     970:	31000315 	stw	r4,12(r6)
     974:	003fbb06 	br	864 <_fpadd_parts+0x90>
     978:	583fb126 	beq	r11,zero,840 <_fpadd_parts+0x6c>
     97c:	41c4983a 	sll	r2,r8,r7
     980:	61c6d83a 	srl	r3,r12,r7
     984:	51d5883a 	add	r10,r10,r7
     988:	10bfffc4 	addi	r2,r2,-1
     98c:	6084703a 	and	r2,r12,r2
     990:	1004c03a 	cmpne	r2,r2,zero
     994:	1898b03a 	or	r12,r3,r2
     998:	003fa906 	br	840 <_fpadd_parts+0x6c>
     99c:	11ffc31e 	bne	r2,r7,8ac <_fpadd_parts+0xd8>
     9a0:	28c00117 	ldw	r3,4(r5)
     9a4:	20800117 	ldw	r2,4(r4)
     9a8:	10ffc026 	beq	r2,r3,8ac <_fpadd_parts+0xd8>
     9ac:	01000074 	movhi	r4,1
     9b0:	213a2404 	addi	r4,r4,-6000
     9b4:	003fbd06 	br	8ac <_fpadd_parts+0xd8>

000009b8 <__subsf3>:
     9b8:	deffef04 	addi	sp,sp,-68
     9bc:	dcc00f15 	stw	r19,60(sp)
     9c0:	dcc00204 	addi	r19,sp,8
     9c4:	dc400e15 	stw	r17,56(sp)
     9c8:	d9000015 	stw	r4,0(sp)
     9cc:	d9400115 	stw	r5,4(sp)
     9d0:	d809883a 	mov	r4,sp
     9d4:	980b883a 	mov	r5,r19
     9d8:	dc400604 	addi	r17,sp,24
     9dc:	dfc01015 	stw	ra,64(sp)
     9e0:	00013700 	call	1370 <__unpack_f>
     9e4:	d9000104 	addi	r4,sp,4
     9e8:	880b883a 	mov	r5,r17
     9ec:	00013700 	call	1370 <__unpack_f>
     9f0:	d8800717 	ldw	r2,28(sp)
     9f4:	9809883a 	mov	r4,r19
     9f8:	880b883a 	mov	r5,r17
     9fc:	d9800a04 	addi	r6,sp,40
     a00:	1080005c 	xori	r2,r2,1
     a04:	d8800715 	stw	r2,28(sp)
     a08:	00007d40 	call	7d4 <_fpadd_parts>
     a0c:	1009883a 	mov	r4,r2
     a10:	00012100 	call	1210 <__pack_f>
     a14:	dfc01017 	ldw	ra,64(sp)
     a18:	dcc00f17 	ldw	r19,60(sp)
     a1c:	dc400e17 	ldw	r17,56(sp)
     a20:	dec01104 	addi	sp,sp,68
     a24:	f800283a 	ret

00000a28 <__addsf3>:
     a28:	deffef04 	addi	sp,sp,-68
     a2c:	dcc00f15 	stw	r19,60(sp)
     a30:	dcc00204 	addi	r19,sp,8
     a34:	dc400e15 	stw	r17,56(sp)
     a38:	d9000015 	stw	r4,0(sp)
     a3c:	d9400115 	stw	r5,4(sp)
     a40:	d809883a 	mov	r4,sp
     a44:	980b883a 	mov	r5,r19
     a48:	dc400604 	addi	r17,sp,24
     a4c:	dfc01015 	stw	ra,64(sp)
     a50:	00013700 	call	1370 <__unpack_f>
     a54:	d9000104 	addi	r4,sp,4
     a58:	880b883a 	mov	r5,r17
     a5c:	00013700 	call	1370 <__unpack_f>
     a60:	d9800a04 	addi	r6,sp,40
     a64:	9809883a 	mov	r4,r19
     a68:	880b883a 	mov	r5,r17
     a6c:	00007d40 	call	7d4 <_fpadd_parts>
     a70:	1009883a 	mov	r4,r2
     a74:	00012100 	call	1210 <__pack_f>
     a78:	dfc01017 	ldw	ra,64(sp)
     a7c:	dcc00f17 	ldw	r19,60(sp)
     a80:	dc400e17 	ldw	r17,56(sp)
     a84:	dec01104 	addi	sp,sp,68
     a88:	f800283a 	ret

00000a8c <__mulsf3>:
     a8c:	deffef04 	addi	sp,sp,-68
     a90:	dc400f15 	stw	r17,60(sp)
     a94:	dc400204 	addi	r17,sp,8
     a98:	dc000e15 	stw	r16,56(sp)
     a9c:	d9000015 	stw	r4,0(sp)
     aa0:	d9400115 	stw	r5,4(sp)
     aa4:	d809883a 	mov	r4,sp
     aa8:	880b883a 	mov	r5,r17
     aac:	dc000604 	addi	r16,sp,24
     ab0:	dfc01015 	stw	ra,64(sp)
     ab4:	00013700 	call	1370 <__unpack_f>
     ab8:	d9000104 	addi	r4,sp,4
     abc:	800b883a 	mov	r5,r16
     ac0:	00013700 	call	1370 <__unpack_f>
     ac4:	d9000217 	ldw	r4,8(sp)
     ac8:	00800044 	movi	r2,1
     acc:	01400104 	movi	r5,4
     ad0:	1100142e 	bgeu	r2,r4,b24 <__mulsf3+0x98>
     ad4:	d8c00617 	ldw	r3,24(sp)
     ad8:	10c0052e 	bgeu	r2,r3,af0 <__mulsf3+0x64>
     adc:	21400f26 	beq	r4,r5,b1c <__mulsf3+0x90>
     ae0:	19405d26 	beq	r3,r5,c58 <__mulsf3+0x1cc>
     ae4:	00800084 	movi	r2,2
     ae8:	20800e26 	beq	r4,r2,b24 <__mulsf3+0x98>
     aec:	1880181e 	bne	r3,r2,b50 <__mulsf3+0xc4>
     af0:	d8c00717 	ldw	r3,28(sp)
     af4:	d8800317 	ldw	r2,12(sp)
     af8:	8009883a 	mov	r4,r16
     afc:	10c4c03a 	cmpne	r2,r2,r3
     b00:	d8800715 	stw	r2,28(sp)
     b04:	00012100 	call	1210 <__pack_f>
     b08:	dfc01017 	ldw	ra,64(sp)
     b0c:	dc400f17 	ldw	r17,60(sp)
     b10:	dc000e17 	ldw	r16,56(sp)
     b14:	dec01104 	addi	sp,sp,68
     b18:	f800283a 	ret
     b1c:	00800084 	movi	r2,2
     b20:	18804f26 	beq	r3,r2,c60 <__mulsf3+0x1d4>
     b24:	d8800317 	ldw	r2,12(sp)
     b28:	d8c00717 	ldw	r3,28(sp)
     b2c:	8809883a 	mov	r4,r17
     b30:	10c4c03a 	cmpne	r2,r2,r3
     b34:	d8800315 	stw	r2,12(sp)
     b38:	00012100 	call	1210 <__pack_f>
     b3c:	dfc01017 	ldw	ra,64(sp)
     b40:	dc400f17 	ldw	r17,60(sp)
     b44:	dc000e17 	ldw	r16,56(sp)
     b48:	dec01104 	addi	sp,sp,68
     b4c:	f800283a 	ret
     b50:	d8800517 	ldw	r2,20(sp)
     b54:	da000917 	ldw	r8,36(sp)
     b58:	0013883a 	mov	r9,zero
     b5c:	0007883a 	mov	r3,zero
     b60:	480f883a 	mov	r7,r9
     b64:	180b883a 	mov	r5,r3
     b68:	400d883a 	mov	r6,r8
     b6c:	1009883a 	mov	r4,r2
     b70:	00010f80 	call	10f8 <__muldi3>
     b74:	da800417 	ldw	r10,16(sp)
     b78:	d9800817 	ldw	r6,32(sp)
     b7c:	da400317 	ldw	r9,12(sp)
     b80:	52800084 	addi	r10,r10,2
     b84:	3295883a 	add	r10,r6,r10
     b88:	d9800717 	ldw	r6,28(sp)
     b8c:	180b883a 	mov	r5,r3
     b90:	180f883a 	mov	r7,r3
     b94:	4992c03a 	cmpne	r9,r9,r6
     b98:	da400b15 	stw	r9,44(sp)
     b9c:	1007883a 	mov	r3,r2
     ba0:	da800c15 	stw	r10,48(sp)
     ba4:	2800070e 	bge	r5,zero,bc4 <__mulsf3+0x138>
     ba8:	2880004c 	andi	r2,r5,1
     bac:	1005003a 	cmpeq	r2,r2,zero
     bb0:	500d883a 	mov	r6,r10
     bb4:	10001e26 	beq	r2,zero,c30 <__mulsf3+0x1a4>
     bb8:	380ed07a 	srli	r7,r7,1
     bbc:	31800044 	addi	r6,r6,1
     bc0:	d9800c15 	stw	r6,48(sp)
     bc4:	01100034 	movhi	r4,16384
     bc8:	213fffc4 	addi	r4,r4,-1
     bcc:	21c00b36 	bltu	r4,r7,bfc <__mulsf3+0x170>
     bd0:	d8800c17 	ldw	r2,48(sp)
     bd4:	00000206 	br	be0 <__mulsf3+0x154>
     bd8:	18c7883a 	add	r3,r3,r3
     bdc:	21c00636 	bltu	r4,r7,bf8 <__mulsf3+0x16c>
     be0:	10bfffc4 	addi	r2,r2,-1
     be4:	39cf883a 	add	r7,r7,r7
     be8:	183ffb0e 	bge	r3,zero,bd8 <__mulsf3+0x14c>
     bec:	39c00054 	ori	r7,r7,1
     bf0:	18c7883a 	add	r3,r3,r3
     bf4:	21fffa2e 	bgeu	r4,r7,be0 <__mulsf3+0x154>
     bf8:	d8800c15 	stw	r2,48(sp)
     bfc:	39001fcc 	andi	r4,r7,127
     c00:	00801004 	movi	r2,64
     c04:	20800d26 	beq	r4,r2,c3c <__mulsf3+0x1b0>
     c08:	008000c4 	movi	r2,3
     c0c:	d9000a04 	addi	r4,sp,40
     c10:	d9c00d15 	stw	r7,52(sp)
     c14:	d8800a15 	stw	r2,40(sp)
     c18:	00012100 	call	1210 <__pack_f>
     c1c:	dfc01017 	ldw	ra,64(sp)
     c20:	dc400f17 	ldw	r17,60(sp)
     c24:	dc000e17 	ldw	r16,56(sp)
     c28:	dec01104 	addi	sp,sp,68
     c2c:	f800283a 	ret
     c30:	1804d07a 	srli	r2,r3,1
     c34:	10e00034 	orhi	r3,r2,32768
     c38:	003fdf06 	br	bb8 <__mulsf3+0x12c>
     c3c:	3880200c 	andi	r2,r7,128
     c40:	103ff11e 	bne	r2,zero,c08 <__mulsf3+0x17c>
     c44:	183ff026 	beq	r3,zero,c08 <__mulsf3+0x17c>
     c48:	3907883a 	add	r3,r7,r4
     c4c:	00bfe004 	movi	r2,-128
     c50:	188e703a 	and	r7,r3,r2
     c54:	003fec06 	br	c08 <__mulsf3+0x17c>
     c58:	00800084 	movi	r2,2
     c5c:	20bfa41e 	bne	r4,r2,af0 <__mulsf3+0x64>
     c60:	01000074 	movhi	r4,1
     c64:	213a2404 	addi	r4,r4,-6000
     c68:	003fb306 	br	b38 <__mulsf3+0xac>

00000c6c <__divsf3>:
     c6c:	defff304 	addi	sp,sp,-52
     c70:	dc400b15 	stw	r17,44(sp)
     c74:	dc400204 	addi	r17,sp,8
     c78:	dc000a15 	stw	r16,40(sp)
     c7c:	d9000015 	stw	r4,0(sp)
     c80:	d9400115 	stw	r5,4(sp)
     c84:	d809883a 	mov	r4,sp
     c88:	880b883a 	mov	r5,r17
     c8c:	dc000604 	addi	r16,sp,24
     c90:	dfc00c15 	stw	ra,48(sp)
     c94:	00013700 	call	1370 <__unpack_f>
     c98:	d9000104 	addi	r4,sp,4
     c9c:	800b883a 	mov	r5,r16
     ca0:	00013700 	call	1370 <__unpack_f>
     ca4:	d9000217 	ldw	r4,8(sp)
     ca8:	00800044 	movi	r2,1
     cac:	01800104 	movi	r6,4
     cb0:	11000a2e 	bgeu	r2,r4,cdc <__divsf3+0x70>
     cb4:	d9400617 	ldw	r5,24(sp)
     cb8:	1140432e 	bgeu	r2,r5,dc8 <__divsf3+0x15c>
     cbc:	d8800317 	ldw	r2,12(sp)
     cc0:	d8c00717 	ldw	r3,28(sp)
     cc4:	10c4f03a 	xor	r2,r2,r3
     cc8:	d8800315 	stw	r2,12(sp)
     ccc:	21800226 	beq	r4,r6,cd8 <__divsf3+0x6c>
     cd0:	00800084 	movi	r2,2
     cd4:	2080101e 	bne	r4,r2,d18 <__divsf3+0xac>
     cd8:	29000726 	beq	r5,r4,cf8 <__divsf3+0x8c>
     cdc:	8809883a 	mov	r4,r17
     ce0:	00012100 	call	1210 <__pack_f>
     ce4:	dfc00c17 	ldw	ra,48(sp)
     ce8:	dc400b17 	ldw	r17,44(sp)
     cec:	dc000a17 	ldw	r16,40(sp)
     cf0:	dec00d04 	addi	sp,sp,52
     cf4:	f800283a 	ret
     cf8:	01000074 	movhi	r4,1
     cfc:	213a2404 	addi	r4,r4,-6000
     d00:	00012100 	call	1210 <__pack_f>
     d04:	dfc00c17 	ldw	ra,48(sp)
     d08:	dc400b17 	ldw	r17,44(sp)
     d0c:	dc000a17 	ldw	r16,40(sp)
     d10:	dec00d04 	addi	sp,sp,52
     d14:	f800283a 	ret
     d18:	29802d26 	beq	r5,r6,dd0 <__divsf3+0x164>
     d1c:	28801a26 	beq	r5,r2,d88 <__divsf3+0x11c>
     d20:	d8c00417 	ldw	r3,16(sp)
     d24:	d8800817 	ldw	r2,32(sp)
     d28:	d9000517 	ldw	r4,20(sp)
     d2c:	d9800917 	ldw	r6,36(sp)
     d30:	1885c83a 	sub	r2,r3,r2
     d34:	d8800415 	stw	r2,16(sp)
     d38:	2180032e 	bgeu	r4,r6,d48 <__divsf3+0xdc>
     d3c:	10bfffc4 	addi	r2,r2,-1
     d40:	d8800415 	stw	r2,16(sp)
     d44:	2109883a 	add	r4,r4,r4
     d48:	01500034 	movhi	r5,16384
     d4c:	0007883a 	mov	r3,zero
     d50:	0005883a 	mov	r2,zero
     d54:	01c007c4 	movi	r7,31
     d58:	10800044 	addi	r2,r2,1
     d5c:	21800236 	bltu	r4,r6,d68 <__divsf3+0xfc>
     d60:	1946b03a 	or	r3,r3,r5
     d64:	2189c83a 	sub	r4,r4,r6
     d68:	280ad07a 	srli	r5,r5,1
     d6c:	2109883a 	add	r4,r4,r4
     d70:	11fff91e 	bne	r2,r7,d58 <__divsf3+0xec>
     d74:	19401fcc 	andi	r5,r3,127
     d78:	00801004 	movi	r2,64
     d7c:	28800a26 	beq	r5,r2,da8 <__divsf3+0x13c>
     d80:	d8c00515 	stw	r3,20(sp)
     d84:	003fd506 	br	cdc <__divsf3+0x70>
     d88:	8809883a 	mov	r4,r17
     d8c:	d9800215 	stw	r6,8(sp)
     d90:	00012100 	call	1210 <__pack_f>
     d94:	dfc00c17 	ldw	ra,48(sp)
     d98:	dc400b17 	ldw	r17,44(sp)
     d9c:	dc000a17 	ldw	r16,40(sp)
     da0:	dec00d04 	addi	sp,sp,52
     da4:	f800283a 	ret
     da8:	1880200c 	andi	r2,r3,128
     dac:	103ff41e 	bne	r2,zero,d80 <__divsf3+0x114>
     db0:	203ff326 	beq	r4,zero,d80 <__divsf3+0x114>
     db4:	1947883a 	add	r3,r3,r5
     db8:	00bfe004 	movi	r2,-128
     dbc:	1886703a 	and	r3,r3,r2
     dc0:	d8c00515 	stw	r3,20(sp)
     dc4:	003fc506 	br	cdc <__divsf3+0x70>
     dc8:	8009883a 	mov	r4,r16
     dcc:	003fc406 	br	ce0 <__divsf3+0x74>
     dd0:	8809883a 	mov	r4,r17
     dd4:	d8000515 	stw	zero,20(sp)
     dd8:	d8000415 	stw	zero,16(sp)
     ddc:	003fc006 	br	ce0 <__divsf3+0x74>

00000de0 <__gesf2>:
     de0:	defff304 	addi	sp,sp,-52
     de4:	dc400b15 	stw	r17,44(sp)
     de8:	dc400204 	addi	r17,sp,8
     dec:	dc000a15 	stw	r16,40(sp)
     df0:	d9000015 	stw	r4,0(sp)
     df4:	d9400115 	stw	r5,4(sp)
     df8:	d809883a 	mov	r4,sp
     dfc:	880b883a 	mov	r5,r17
     e00:	dc000604 	addi	r16,sp,24
     e04:	dfc00c15 	stw	ra,48(sp)
     e08:	00013700 	call	1370 <__unpack_f>
     e0c:	d9000104 	addi	r4,sp,4
     e10:	800b883a 	mov	r5,r16
     e14:	00013700 	call	1370 <__unpack_f>
     e18:	d8800217 	ldw	r2,8(sp)
     e1c:	00c00044 	movi	r3,1
     e20:	01bfffc4 	movi	r6,-1
     e24:	1880062e 	bgeu	r3,r2,e40 <__gesf2+0x60>
     e28:	d8800617 	ldw	r2,24(sp)
     e2c:	8809883a 	mov	r4,r17
     e30:	800b883a 	mov	r5,r16
     e34:	1880022e 	bgeu	r3,r2,e40 <__gesf2+0x60>
     e38:	00014380 	call	1438 <__fpcmp_parts_f>
     e3c:	100d883a 	mov	r6,r2
     e40:	3005883a 	mov	r2,r6
     e44:	dfc00c17 	ldw	ra,48(sp)
     e48:	dc400b17 	ldw	r17,44(sp)
     e4c:	dc000a17 	ldw	r16,40(sp)
     e50:	dec00d04 	addi	sp,sp,52
     e54:	f800283a 	ret

00000e58 <__fixsfsi>:
     e58:	defffa04 	addi	sp,sp,-24
     e5c:	d9000015 	stw	r4,0(sp)
     e60:	d9400104 	addi	r5,sp,4
     e64:	d809883a 	mov	r4,sp
     e68:	dfc00515 	stw	ra,20(sp)
     e6c:	00013700 	call	1370 <__unpack_f>
     e70:	d8c00117 	ldw	r3,4(sp)
     e74:	00800084 	movi	r2,2
     e78:	1880041e 	bne	r3,r2,e8c <__fixsfsi+0x34>
     e7c:	0005883a 	mov	r2,zero
     e80:	dfc00517 	ldw	ra,20(sp)
     e84:	dec00604 	addi	sp,sp,24
     e88:	f800283a 	ret
     e8c:	00800044 	movi	r2,1
     e90:	10fffa2e 	bgeu	r2,r3,e7c <__fixsfsi+0x24>
     e94:	00800104 	movi	r2,4
     e98:	18800426 	beq	r3,r2,eac <__fixsfsi+0x54>
     e9c:	d8800317 	ldw	r2,12(sp)
     ea0:	103ff616 	blt	r2,zero,e7c <__fixsfsi+0x24>
     ea4:	00c00784 	movi	r3,30
     ea8:	1880070e 	bge	r3,r2,ec8 <__fixsfsi+0x70>
     eac:	d8800217 	ldw	r2,8(sp)
     eb0:	10000c1e 	bne	r2,zero,ee4 <__fixsfsi+0x8c>
     eb4:	00a00034 	movhi	r2,32768
     eb8:	10bfffc4 	addi	r2,r2,-1
     ebc:	dfc00517 	ldw	ra,20(sp)
     ec0:	dec00604 	addi	sp,sp,24
     ec4:	f800283a 	ret
     ec8:	1885c83a 	sub	r2,r3,r2
     ecc:	d9000217 	ldw	r4,8(sp)
     ed0:	d8c00417 	ldw	r3,16(sp)
     ed4:	1884d83a 	srl	r2,r3,r2
     ed8:	203fe926 	beq	r4,zero,e80 <__fixsfsi+0x28>
     edc:	0085c83a 	sub	r2,zero,r2
     ee0:	003fe706 	br	e80 <__fixsfsi+0x28>
     ee4:	00a00034 	movhi	r2,32768
     ee8:	003fe506 	br	e80 <__fixsfsi+0x28>

00000eec <__floatunsisf>:
     eec:	defff904 	addi	sp,sp,-28
     ef0:	dc400515 	stw	r17,20(sp)
     ef4:	dc000415 	stw	r16,16(sp)
     ef8:	dfc00615 	stw	ra,24(sp)
     efc:	04400784 	movi	r17,30
     f00:	2021883a 	mov	r16,r4
     f04:	d8000115 	stw	zero,4(sp)
     f08:	2000091e 	bne	r4,zero,f30 <__floatunsisf+0x44>
     f0c:	00800084 	movi	r2,2
     f10:	d8800015 	stw	r2,0(sp)
     f14:	d809883a 	mov	r4,sp
     f18:	00012100 	call	1210 <__pack_f>
     f1c:	dfc00617 	ldw	ra,24(sp)
     f20:	dc400517 	ldw	r17,20(sp)
     f24:	dc000417 	ldw	r16,16(sp)
     f28:	dec00704 	addi	sp,sp,28
     f2c:	f800283a 	ret
     f30:	008000c4 	movi	r2,3
     f34:	d9000315 	stw	r4,12(sp)
     f38:	d8800015 	stw	r2,0(sp)
     f3c:	dc400215 	stw	r17,8(sp)
     f40:	00011900 	call	1190 <__clzsi2>
     f44:	117fffc4 	addi	r5,r2,-1
     f48:	0147c83a 	sub	r3,zero,r5
     f4c:	00800044 	movi	r2,1
     f50:	10c4983a 	sll	r2,r2,r3
     f54:	80c6d83a 	srl	r3,r16,r3
     f58:	8949c83a 	sub	r4,r17,r5
     f5c:	10bfffc4 	addi	r2,r2,-1
     f60:	8084703a 	and	r2,r16,r2
     f64:	1004c03a 	cmpne	r2,r2,zero
     f68:	1886b03a 	or	r3,r3,r2
     f6c:	28000c16 	blt	r5,zero,fa0 <__floatunsisf+0xb4>
     f70:	8144983a 	sll	r2,r16,r5
     f74:	8947c83a 	sub	r3,r17,r5
     f78:	283fe626 	beq	r5,zero,f14 <__floatunsisf+0x28>
     f7c:	d809883a 	mov	r4,sp
     f80:	d8800315 	stw	r2,12(sp)
     f84:	d8c00215 	stw	r3,8(sp)
     f88:	00012100 	call	1210 <__pack_f>
     f8c:	dfc00617 	ldw	ra,24(sp)
     f90:	dc400517 	ldw	r17,20(sp)
     f94:	dc000417 	ldw	r16,16(sp)
     f98:	dec00704 	addi	sp,sp,28
     f9c:	f800283a 	ret
     fa0:	d8c00315 	stw	r3,12(sp)
     fa4:	d9000215 	stw	r4,8(sp)
     fa8:	003fda06 	br	f14 <__floatunsisf+0x28>

00000fac <udivmodsi4>:
     fac:	29001b2e 	bgeu	r5,r4,101c <udivmodsi4+0x70>
     fb0:	28001a16 	blt	r5,zero,101c <udivmodsi4+0x70>
     fb4:	00800044 	movi	r2,1
     fb8:	0007883a 	mov	r3,zero
     fbc:	01c007c4 	movi	r7,31
     fc0:	00000306 	br	fd0 <udivmodsi4+0x24>
     fc4:	19c01326 	beq	r3,r7,1014 <udivmodsi4+0x68>
     fc8:	18c00044 	addi	r3,r3,1
     fcc:	28000416 	blt	r5,zero,fe0 <udivmodsi4+0x34>
     fd0:	294b883a 	add	r5,r5,r5
     fd4:	1085883a 	add	r2,r2,r2
     fd8:	293ffa36 	bltu	r5,r4,fc4 <udivmodsi4+0x18>
     fdc:	10000d26 	beq	r2,zero,1014 <udivmodsi4+0x68>
     fe0:	0007883a 	mov	r3,zero
     fe4:	21400236 	bltu	r4,r5,ff0 <udivmodsi4+0x44>
     fe8:	2149c83a 	sub	r4,r4,r5
     fec:	1886b03a 	or	r3,r3,r2
     ff0:	1004d07a 	srli	r2,r2,1
     ff4:	280ad07a 	srli	r5,r5,1
     ff8:	103ffa1e 	bne	r2,zero,fe4 <udivmodsi4+0x38>
     ffc:	30000226 	beq	r6,zero,1008 <udivmodsi4+0x5c>
    1000:	2005883a 	mov	r2,r4
    1004:	f800283a 	ret
    1008:	1809883a 	mov	r4,r3
    100c:	2005883a 	mov	r2,r4
    1010:	f800283a 	ret
    1014:	0007883a 	mov	r3,zero
    1018:	003ff806 	br	ffc <udivmodsi4+0x50>
    101c:	00800044 	movi	r2,1
    1020:	0007883a 	mov	r3,zero
    1024:	003fef06 	br	fe4 <udivmodsi4+0x38>

00001028 <__divsi3>:
    1028:	defffe04 	addi	sp,sp,-8
    102c:	dc000015 	stw	r16,0(sp)
    1030:	dfc00115 	stw	ra,4(sp)
    1034:	0021883a 	mov	r16,zero
    1038:	20000c16 	blt	r4,zero,106c <__divsi3+0x44>
    103c:	000d883a 	mov	r6,zero
    1040:	28000e16 	blt	r5,zero,107c <__divsi3+0x54>
    1044:	0000fac0 	call	fac <udivmodsi4>
    1048:	1007883a 	mov	r3,r2
    104c:	8005003a 	cmpeq	r2,r16,zero
    1050:	1000011e 	bne	r2,zero,1058 <__divsi3+0x30>
    1054:	00c7c83a 	sub	r3,zero,r3
    1058:	1805883a 	mov	r2,r3
    105c:	dfc00117 	ldw	ra,4(sp)
    1060:	dc000017 	ldw	r16,0(sp)
    1064:	dec00204 	addi	sp,sp,8
    1068:	f800283a 	ret
    106c:	0109c83a 	sub	r4,zero,r4
    1070:	04000044 	movi	r16,1
    1074:	000d883a 	mov	r6,zero
    1078:	283ff20e 	bge	r5,zero,1044 <__divsi3+0x1c>
    107c:	014bc83a 	sub	r5,zero,r5
    1080:	8021003a 	cmpeq	r16,r16,zero
    1084:	003fef06 	br	1044 <__divsi3+0x1c>

00001088 <__modsi3>:
    1088:	deffff04 	addi	sp,sp,-4
    108c:	dfc00015 	stw	ra,0(sp)
    1090:	01800044 	movi	r6,1
    1094:	2807883a 	mov	r3,r5
    1098:	20000416 	blt	r4,zero,10ac <__modsi3+0x24>
    109c:	28000c16 	blt	r5,zero,10d0 <__modsi3+0x48>
    10a0:	dfc00017 	ldw	ra,0(sp)
    10a4:	dec00104 	addi	sp,sp,4
    10a8:	0000fac1 	jmpi	fac <udivmodsi4>
    10ac:	0109c83a 	sub	r4,zero,r4
    10b0:	28000b16 	blt	r5,zero,10e0 <__modsi3+0x58>
    10b4:	180b883a 	mov	r5,r3
    10b8:	01800044 	movi	r6,1
    10bc:	0000fac0 	call	fac <udivmodsi4>
    10c0:	0085c83a 	sub	r2,zero,r2
    10c4:	dfc00017 	ldw	ra,0(sp)
    10c8:	dec00104 	addi	sp,sp,4
    10cc:	f800283a 	ret
    10d0:	014bc83a 	sub	r5,zero,r5
    10d4:	dfc00017 	ldw	ra,0(sp)
    10d8:	dec00104 	addi	sp,sp,4
    10dc:	0000fac1 	jmpi	fac <udivmodsi4>
    10e0:	0147c83a 	sub	r3,zero,r5
    10e4:	003ff306 	br	10b4 <__modsi3+0x2c>

000010e8 <__udivsi3>:
    10e8:	000d883a 	mov	r6,zero
    10ec:	0000fac1 	jmpi	fac <udivmodsi4>

000010f0 <__umodsi3>:
    10f0:	01800044 	movi	r6,1
    10f4:	0000fac1 	jmpi	fac <udivmodsi4>

000010f8 <__muldi3>:
    10f8:	2011883a 	mov	r8,r4
    10fc:	427fffcc 	andi	r9,r8,65535
    1100:	4018d43a 	srli	r12,r8,16
    1104:	32bfffcc 	andi	r10,r6,65535
    1108:	3016d43a 	srli	r11,r6,16
    110c:	4a85383a 	mul	r2,r9,r10
    1110:	6295383a 	mul	r10,r12,r10
    1114:	4ad3383a 	mul	r9,r9,r11
    1118:	113fffcc 	andi	r4,r2,65535
    111c:	1004d43a 	srli	r2,r2,16
    1120:	4a93883a 	add	r9,r9,r10
    1124:	3807883a 	mov	r3,r7
    1128:	1245883a 	add	r2,r2,r9
    112c:	280f883a 	mov	r7,r5
    1130:	180b883a 	mov	r5,r3
    1134:	1006943a 	slli	r3,r2,16
    1138:	defffd04 	addi	sp,sp,-12
    113c:	dc800215 	stw	r18,8(sp)
    1140:	1907883a 	add	r3,r3,r4
    1144:	dc400115 	stw	r17,4(sp)
    1148:	dc000015 	stw	r16,0(sp)
    114c:	4165383a 	mul	r18,r8,r5
    1150:	31e3383a 	mul	r17,r6,r7
    1154:	1012d43a 	srli	r9,r2,16
    1158:	62d9383a 	mul	r12,r12,r11
    115c:	181f883a 	mov	r15,r3
    1160:	1280022e 	bgeu	r2,r10,116c <__muldi3+0x74>
    1164:	00800074 	movhi	r2,1
    1168:	6099883a 	add	r12,r12,r2
    116c:	624d883a 	add	r6,r12,r9
    1170:	9187883a 	add	r3,r18,r6
    1174:	88c7883a 	add	r3,r17,r3
    1178:	7805883a 	mov	r2,r15
    117c:	dc800217 	ldw	r18,8(sp)
    1180:	dc400117 	ldw	r17,4(sp)
    1184:	dc000017 	ldw	r16,0(sp)
    1188:	dec00304 	addi	sp,sp,12
    118c:	f800283a 	ret

00001190 <__clzsi2>:
    1190:	00bfffd4 	movui	r2,65535
    1194:	11000e36 	bltu	r2,r4,11d0 <__clzsi2+0x40>
    1198:	00803fc4 	movi	r2,255
    119c:	01400204 	movi	r5,8
    11a0:	0007883a 	mov	r3,zero
    11a4:	11001036 	bltu	r2,r4,11e8 <__clzsi2+0x58>
    11a8:	000b883a 	mov	r5,zero
    11ac:	20c6d83a 	srl	r3,r4,r3
    11b0:	00800074 	movhi	r2,1
    11b4:	10ba2804 	addi	r2,r2,-5984
    11b8:	1887883a 	add	r3,r3,r2
    11bc:	18800003 	ldbu	r2,0(r3)
    11c0:	00c00804 	movi	r3,32
    11c4:	2885883a 	add	r2,r5,r2
    11c8:	1885c83a 	sub	r2,r3,r2
    11cc:	f800283a 	ret
    11d0:	01400404 	movi	r5,16
    11d4:	00804034 	movhi	r2,256
    11d8:	10bfffc4 	addi	r2,r2,-1
    11dc:	2807883a 	mov	r3,r5
    11e0:	113ff22e 	bgeu	r2,r4,11ac <__clzsi2+0x1c>
    11e4:	01400604 	movi	r5,24
    11e8:	2807883a 	mov	r3,r5
    11ec:	20c6d83a 	srl	r3,r4,r3
    11f0:	00800074 	movhi	r2,1
    11f4:	10ba2804 	addi	r2,r2,-5984
    11f8:	1887883a 	add	r3,r3,r2
    11fc:	18800003 	ldbu	r2,0(r3)
    1200:	00c00804 	movi	r3,32
    1204:	2885883a 	add	r2,r5,r2
    1208:	1885c83a 	sub	r2,r3,r2
    120c:	f800283a 	ret

00001210 <__pack_f>:
    1210:	20c00017 	ldw	r3,0(r4)
    1214:	01c00044 	movi	r7,1
    1218:	21800317 	ldw	r6,12(r4)
    121c:	21400117 	ldw	r5,4(r4)
    1220:	38c02d2e 	bgeu	r7,r3,12d8 <__pack_f+0xc8>
    1224:	00800104 	movi	r2,4
    1228:	18802826 	beq	r3,r2,12cc <__pack_f+0xbc>
    122c:	00800084 	movi	r2,2
    1230:	18800126 	beq	r3,r2,1238 <__pack_f+0x28>
    1234:	3000101e 	bne	r6,zero,1278 <__pack_f+0x68>
    1238:	000d883a 	mov	r6,zero
    123c:	0007883a 	mov	r3,zero
    1240:	19003fcc 	andi	r4,r3,255
    1244:	200895fa 	slli	r4,r4,23
    1248:	00c02034 	movhi	r3,128
    124c:	18ffffc4 	addi	r3,r3,-1
    1250:	30c6703a 	and	r3,r6,r3
    1254:	10a0002c 	andhi	r2,r2,32768
    1258:	10c4b03a 	or	r2,r2,r3
    125c:	280a97fa 	slli	r5,r5,31
    1260:	1104b03a 	or	r2,r2,r4
    1264:	00e00034 	movhi	r3,32768
    1268:	18ffffc4 	addi	r3,r3,-1
    126c:	10c4703a 	and	r2,r2,r3
    1270:	1144b03a 	or	r2,r2,r5
    1274:	f800283a 	ret
    1278:	21000217 	ldw	r4,8(r4)
    127c:	00bfe084 	movi	r2,-126
    1280:	20801b16 	blt	r4,r2,12f0 <__pack_f+0xe0>
    1284:	00801fc4 	movi	r2,127
    1288:	11001016 	blt	r2,r4,12cc <__pack_f+0xbc>
    128c:	308e703a 	and	r7,r6,r2
    1290:	2087883a 	add	r3,r4,r2
    1294:	00801004 	movi	r2,64
    1298:	38800526 	beq	r7,r2,12b0 <__pack_f+0xa0>
    129c:	31800fc4 	addi	r6,r6,63
    12a0:	30000716 	blt	r6,zero,12c0 <__pack_f+0xb0>
    12a4:	300490ba 	slli	r2,r6,2
    12a8:	100cd27a 	srli	r6,r2,9
    12ac:	003fe406 	br	1240 <__pack_f+0x30>
    12b0:	3080200c 	andi	r2,r6,128
    12b4:	103ffa26 	beq	r2,zero,12a0 <__pack_f+0x90>
    12b8:	31cd883a 	add	r6,r6,r7
    12bc:	003ff806 	br	12a0 <__pack_f+0x90>
    12c0:	300cd07a 	srli	r6,r6,1
    12c4:	18c00044 	addi	r3,r3,1
    12c8:	003ff606 	br	12a4 <__pack_f+0x94>
    12cc:	000d883a 	mov	r6,zero
    12d0:	00ffffc4 	movi	r3,-1
    12d4:	003fda06 	br	1240 <__pack_f+0x30>
    12d8:	31800434 	orhi	r6,r6,16
    12dc:	00802034 	movhi	r2,128
    12e0:	10bfffc4 	addi	r2,r2,-1
    12e4:	308c703a 	and	r6,r6,r2
    12e8:	00ffffc4 	movi	r3,-1
    12ec:	003fd406 	br	1240 <__pack_f+0x30>
    12f0:	1109c83a 	sub	r4,r2,r4
    12f4:	00800644 	movi	r2,25
    12f8:	11001216 	blt	r2,r4,1344 <__pack_f+0x134>
    12fc:	3904983a 	sll	r2,r7,r4
    1300:	3106d83a 	srl	r3,r6,r4
    1304:	10bfffc4 	addi	r2,r2,-1
    1308:	3084703a 	and	r2,r6,r2
    130c:	1004c03a 	cmpne	r2,r2,zero
    1310:	1886b03a 	or	r3,r3,r2
    1314:	19001fcc 	andi	r4,r3,127
    1318:	00801004 	movi	r2,64
    131c:	20800c26 	beq	r4,r2,1350 <__pack_f+0x140>
    1320:	18c00fc4 	addi	r3,r3,63
    1324:	00900034 	movhi	r2,16384
    1328:	10bfffc4 	addi	r2,r2,-1
    132c:	180cd1fa 	srli	r6,r3,7
    1330:	10c7803a 	cmpltu	r3,r2,r3
    1334:	00802034 	movhi	r2,128
    1338:	10bfffc4 	addi	r2,r2,-1
    133c:	308c703a 	and	r6,r6,r2
    1340:	003fbf06 	br	1240 <__pack_f+0x30>
    1344:	0007883a 	mov	r3,zero
    1348:	000d883a 	mov	r6,zero
    134c:	003ff906 	br	1334 <__pack_f+0x124>
    1350:	1880200c 	andi	r2,r3,128
    1354:	10000126 	beq	r2,zero,135c <__pack_f+0x14c>
    1358:	1907883a 	add	r3,r3,r4
    135c:	180cd1fa 	srli	r6,r3,7
    1360:	00900034 	movhi	r2,16384
    1364:	10bfffc4 	addi	r2,r2,-1
    1368:	10c7803a 	cmpltu	r3,r2,r3
    136c:	003ff106 	br	1334 <__pack_f+0x124>

00001370 <__unpack_f>:
    1370:	21800017 	ldw	r6,0(r4)
    1374:	00c02034 	movhi	r3,128
    1378:	18ffffc4 	addi	r3,r3,-1
    137c:	3004d5fa 	srli	r2,r6,23
    1380:	3008d7fa 	srli	r4,r6,31
    1384:	30ce703a 	and	r7,r6,r3
    1388:	10c03fcc 	andi	r3,r2,255
    138c:	29000115 	stw	r4,4(r5)
    1390:	1800131e 	bne	r3,zero,13e0 <__unpack_f+0x70>
    1394:	38000f26 	beq	r7,zero,13d4 <__unpack_f+0x64>
    1398:	380691fa 	slli	r3,r7,7
    139c:	01bfe084 	movi	r6,-126
    13a0:	008000c4 	movi	r2,3
    13a4:	01100034 	movhi	r4,16384
    13a8:	213fffc4 	addi	r4,r4,-1
    13ac:	28800015 	stw	r2,0(r5)
    13b0:	29800215 	stw	r6,8(r5)
    13b4:	20c00536 	bltu	r4,r3,13cc <__unpack_f+0x5c>
    13b8:	3005883a 	mov	r2,r6
    13bc:	18c7883a 	add	r3,r3,r3
    13c0:	10bfffc4 	addi	r2,r2,-1
    13c4:	20fffd2e 	bgeu	r4,r3,13bc <__unpack_f+0x4c>
    13c8:	28800215 	stw	r2,8(r5)
    13cc:	28c00315 	stw	r3,12(r5)
    13d0:	f800283a 	ret
    13d4:	00800084 	movi	r2,2
    13d8:	28800015 	stw	r2,0(r5)
    13dc:	f800283a 	ret
    13e0:	00803fc4 	movi	r2,255
    13e4:	18800826 	beq	r3,r2,1408 <__unpack_f+0x98>
    13e8:	380491fa 	slli	r2,r7,7
    13ec:	18ffe044 	addi	r3,r3,-127
    13f0:	28c00215 	stw	r3,8(r5)
    13f4:	10900034 	orhi	r2,r2,16384
    13f8:	28800315 	stw	r2,12(r5)
    13fc:	008000c4 	movi	r2,3
    1400:	28800015 	stw	r2,0(r5)
    1404:	f800283a 	ret
    1408:	3800031e 	bne	r7,zero,1418 <__unpack_f+0xa8>
    140c:	00800104 	movi	r2,4
    1410:	28800015 	stw	r2,0(r5)
    1414:	f800283a 	ret
    1418:	3080042c 	andhi	r2,r6,16
    141c:	10000426 	beq	r2,zero,1430 <__unpack_f+0xc0>
    1420:	00800044 	movi	r2,1
    1424:	28800015 	stw	r2,0(r5)
    1428:	29c00315 	stw	r7,12(r5)
    142c:	f800283a 	ret
    1430:	28000015 	stw	zero,0(r5)
    1434:	003ffc06 	br	1428 <__unpack_f+0xb8>

00001438 <__fpcmp_parts_f>:
    1438:	21800017 	ldw	r6,0(r4)
    143c:	00c00044 	movi	r3,1
    1440:	19800a2e 	bgeu	r3,r6,146c <__fpcmp_parts_f+0x34>
    1444:	28800017 	ldw	r2,0(r5)
    1448:	1880082e 	bgeu	r3,r2,146c <__fpcmp_parts_f+0x34>
    144c:	00c00104 	movi	r3,4
    1450:	30c01e26 	beq	r6,r3,14cc <__fpcmp_parts_f+0x94>
    1454:	10c01a26 	beq	r2,r3,14c0 <__fpcmp_parts_f+0x88>
    1458:	00c00084 	movi	r3,2
    145c:	30c00526 	beq	r6,r3,1474 <__fpcmp_parts_f+0x3c>
    1460:	10c0071e 	bne	r2,r3,1480 <__fpcmp_parts_f+0x48>
    1464:	20800117 	ldw	r2,4(r4)
    1468:	1000091e 	bne	r2,zero,1490 <__fpcmp_parts_f+0x58>
    146c:	00800044 	movi	r2,1
    1470:	f800283a 	ret
    1474:	10c0121e 	bne	r2,r3,14c0 <__fpcmp_parts_f+0x88>
    1478:	0005883a 	mov	r2,zero
    147c:	f800283a 	ret
    1480:	20c00117 	ldw	r3,4(r4)
    1484:	28800117 	ldw	r2,4(r5)
    1488:	18800326 	beq	r3,r2,1498 <__fpcmp_parts_f+0x60>
    148c:	183ff726 	beq	r3,zero,146c <__fpcmp_parts_f+0x34>
    1490:	00bfffc4 	movi	r2,-1
    1494:	f800283a 	ret
    1498:	21800217 	ldw	r6,8(r4)
    149c:	28800217 	ldw	r2,8(r5)
    14a0:	11bffa16 	blt	r2,r6,148c <__fpcmp_parts_f+0x54>
    14a4:	30800416 	blt	r6,r2,14b8 <__fpcmp_parts_f+0x80>
    14a8:	21000317 	ldw	r4,12(r4)
    14ac:	29400317 	ldw	r5,12(r5)
    14b0:	293ff636 	bltu	r5,r4,148c <__fpcmp_parts_f+0x54>
    14b4:	217ff02e 	bgeu	r4,r5,1478 <__fpcmp_parts_f+0x40>
    14b8:	183fec1e 	bne	r3,zero,146c <__fpcmp_parts_f+0x34>
    14bc:	003ff406 	br	1490 <__fpcmp_parts_f+0x58>
    14c0:	28800117 	ldw	r2,4(r5)
    14c4:	103fe91e 	bne	r2,zero,146c <__fpcmp_parts_f+0x34>
    14c8:	003ff106 	br	1490 <__fpcmp_parts_f+0x58>
    14cc:	11bfe51e 	bne	r2,r6,1464 <__fpcmp_parts_f+0x2c>
    14d0:	28c00117 	ldw	r3,4(r5)
    14d4:	20800117 	ldw	r2,4(r4)
    14d8:	1885c83a 	sub	r2,r3,r2
    14dc:	f800283a 	ret

000014e0 <printf>:
    14e0:	defffb04 	addi	sp,sp,-20
    14e4:	dfc00115 	stw	ra,4(sp)
    14e8:	d9400215 	stw	r5,8(sp)
    14ec:	d9800315 	stw	r6,12(sp)
    14f0:	d9c00415 	stw	r7,16(sp)
    14f4:	00800074 	movhi	r2,1
    14f8:	1081b304 	addi	r2,r2,1740
    14fc:	10c00017 	ldw	r3,0(r2)
    1500:	200b883a 	mov	r5,r4
    1504:	d8800204 	addi	r2,sp,8
    1508:	19000217 	ldw	r4,8(r3)
    150c:	100d883a 	mov	r6,r2
    1510:	d8800015 	stw	r2,0(sp)
    1514:	00035840 	call	3584 <__vfprintf_internal>
    1518:	dfc00117 	ldw	ra,4(sp)
    151c:	dec00504 	addi	sp,sp,20
    1520:	f800283a 	ret

00001524 <_printf_r>:
    1524:	defffc04 	addi	sp,sp,-16
    1528:	dfc00115 	stw	ra,4(sp)
    152c:	d9800215 	stw	r6,8(sp)
    1530:	d9c00315 	stw	r7,12(sp)
    1534:	280d883a 	mov	r6,r5
    1538:	21400217 	ldw	r5,8(r4)
    153c:	d8c00204 	addi	r3,sp,8
    1540:	180f883a 	mov	r7,r3
    1544:	d8c00015 	stw	r3,0(sp)
    1548:	00016d80 	call	16d8 <___vfprintf_internal_r>
    154c:	dfc00117 	ldw	ra,4(sp)
    1550:	dec00404 	addi	sp,sp,16
    1554:	f800283a 	ret

00001558 <_puts_r>:
    1558:	defff604 	addi	sp,sp,-40
    155c:	dc400715 	stw	r17,28(sp)
    1560:	2023883a 	mov	r17,r4
    1564:	2809883a 	mov	r4,r5
    1568:	dfc00915 	stw	ra,36(sp)
    156c:	dcc00815 	stw	r19,32(sp)
    1570:	2827883a 	mov	r19,r5
    1574:	000160c0 	call	160c <strlen>
    1578:	89400217 	ldw	r5,8(r17)
    157c:	00c00074 	movhi	r3,1
    1580:	18fa6804 	addi	r3,r3,-5728
    1584:	01c00044 	movi	r7,1
    1588:	12000044 	addi	r8,r2,1
    158c:	d8c00515 	stw	r3,20(sp)
    1590:	d9c00615 	stw	r7,24(sp)
    1594:	d8c00304 	addi	r3,sp,12
    1598:	01c00084 	movi	r7,2
    159c:	8809883a 	mov	r4,r17
    15a0:	d80d883a 	mov	r6,sp
    15a4:	d8c00015 	stw	r3,0(sp)
    15a8:	dcc00315 	stw	r19,12(sp)
    15ac:	da000215 	stw	r8,8(sp)
    15b0:	d9c00115 	stw	r7,4(sp)
    15b4:	d8800415 	stw	r2,16(sp)
    15b8:	00057e00 	call	57e0 <__sfvwrite_r>
    15bc:	00ffffc4 	movi	r3,-1
    15c0:	10000626 	beq	r2,zero,15dc <_puts_r+0x84>
    15c4:	1805883a 	mov	r2,r3
    15c8:	dfc00917 	ldw	ra,36(sp)
    15cc:	dcc00817 	ldw	r19,32(sp)
    15d0:	dc400717 	ldw	r17,28(sp)
    15d4:	dec00a04 	addi	sp,sp,40
    15d8:	f800283a 	ret
    15dc:	00c00284 	movi	r3,10
    15e0:	1805883a 	mov	r2,r3
    15e4:	dfc00917 	ldw	ra,36(sp)
    15e8:	dcc00817 	ldw	r19,32(sp)
    15ec:	dc400717 	ldw	r17,28(sp)
    15f0:	dec00a04 	addi	sp,sp,40
    15f4:	f800283a 	ret

000015f8 <puts>:
    15f8:	00800074 	movhi	r2,1
    15fc:	1081b304 	addi	r2,r2,1740
    1600:	200b883a 	mov	r5,r4
    1604:	11000017 	ldw	r4,0(r2)
    1608:	00015581 	jmpi	1558 <_puts_r>

0000160c <strlen>:
    160c:	208000cc 	andi	r2,r4,3
    1610:	2011883a 	mov	r8,r4
    1614:	1000161e 	bne	r2,zero,1670 <strlen+0x64>
    1618:	20c00017 	ldw	r3,0(r4)
    161c:	017fbff4 	movhi	r5,65279
    1620:	297fbfc4 	addi	r5,r5,-257
    1624:	01e02074 	movhi	r7,32897
    1628:	39e02004 	addi	r7,r7,-32640
    162c:	1945883a 	add	r2,r3,r5
    1630:	11c4703a 	and	r2,r2,r7
    1634:	00c6303a 	nor	r3,zero,r3
    1638:	1886703a 	and	r3,r3,r2
    163c:	18000c1e 	bne	r3,zero,1670 <strlen+0x64>
    1640:	280d883a 	mov	r6,r5
    1644:	380b883a 	mov	r5,r7
    1648:	21000104 	addi	r4,r4,4
    164c:	20800017 	ldw	r2,0(r4)
    1650:	1187883a 	add	r3,r2,r6
    1654:	1946703a 	and	r3,r3,r5
    1658:	0084303a 	nor	r2,zero,r2
    165c:	10c4703a 	and	r2,r2,r3
    1660:	103ff926 	beq	r2,zero,1648 <strlen+0x3c>
    1664:	20800007 	ldb	r2,0(r4)
    1668:	10000326 	beq	r2,zero,1678 <strlen+0x6c>
    166c:	21000044 	addi	r4,r4,1
    1670:	20800007 	ldb	r2,0(r4)
    1674:	103ffd1e 	bne	r2,zero,166c <strlen+0x60>
    1678:	2205c83a 	sub	r2,r4,r8
    167c:	f800283a 	ret

00001680 <__sprint_r>:
    1680:	30800217 	ldw	r2,8(r6)
    1684:	defffe04 	addi	sp,sp,-8
    1688:	dc000015 	stw	r16,0(sp)
    168c:	dfc00115 	stw	ra,4(sp)
    1690:	3021883a 	mov	r16,r6
    1694:	0007883a 	mov	r3,zero
    1698:	1000061e 	bne	r2,zero,16b4 <__sprint_r+0x34>
    169c:	1805883a 	mov	r2,r3
    16a0:	30000115 	stw	zero,4(r6)
    16a4:	dfc00117 	ldw	ra,4(sp)
    16a8:	dc000017 	ldw	r16,0(sp)
    16ac:	dec00204 	addi	sp,sp,8
    16b0:	f800283a 	ret
    16b4:	00057e00 	call	57e0 <__sfvwrite_r>
    16b8:	1007883a 	mov	r3,r2
    16bc:	1805883a 	mov	r2,r3
    16c0:	80000115 	stw	zero,4(r16)
    16c4:	80000215 	stw	zero,8(r16)
    16c8:	dfc00117 	ldw	ra,4(sp)
    16cc:	dc000017 	ldw	r16,0(sp)
    16d0:	dec00204 	addi	sp,sp,8
    16d4:	f800283a 	ret

000016d8 <___vfprintf_internal_r>:
    16d8:	defea404 	addi	sp,sp,-1392
    16dc:	dd815815 	stw	r22,1376(sp)
    16e0:	dc015215 	stw	r16,1352(sp)
    16e4:	d9c15115 	stw	r7,1348(sp)
    16e8:	dfc15b15 	stw	ra,1388(sp)
    16ec:	df015a15 	stw	fp,1384(sp)
    16f0:	ddc15915 	stw	r23,1380(sp)
    16f4:	dd415715 	stw	r21,1372(sp)
    16f8:	dd015615 	stw	r20,1368(sp)
    16fc:	dcc15515 	stw	r19,1364(sp)
    1700:	dc815415 	stw	r18,1360(sp)
    1704:	dc415315 	stw	r17,1356(sp)
    1708:	282d883a 	mov	r22,r5
    170c:	3021883a 	mov	r16,r6
    1710:	d9014f15 	stw	r4,1340(sp)
    1714:	0005e040 	call	5e04 <_localeconv_r>
    1718:	10800017 	ldw	r2,0(r2)
    171c:	d9c15117 	ldw	r7,1348(sp)
    1720:	d8814915 	stw	r2,1316(sp)
    1724:	d8814f17 	ldw	r2,1340(sp)
    1728:	10000226 	beq	r2,zero,1734 <___vfprintf_internal_r+0x5c>
    172c:	10800e17 	ldw	r2,56(r2)
    1730:	10020d26 	beq	r2,zero,1f68 <___vfprintf_internal_r+0x890>
    1734:	b080030b 	ldhu	r2,12(r22)
    1738:	1080020c 	andi	r2,r2,8
    173c:	10020e26 	beq	r2,zero,1f78 <___vfprintf_internal_r+0x8a0>
    1740:	b0800417 	ldw	r2,16(r22)
    1744:	10020c26 	beq	r2,zero,1f78 <___vfprintf_internal_r+0x8a0>
    1748:	b200030b 	ldhu	r8,12(r22)
    174c:	00800284 	movi	r2,10
    1750:	40c0068c 	andi	r3,r8,26
    1754:	18802f1e 	bne	r3,r2,1814 <___vfprintf_internal_r+0x13c>
    1758:	b080038f 	ldh	r2,14(r22)
    175c:	10002d16 	blt	r2,zero,1814 <___vfprintf_internal_r+0x13c>
    1760:	b240038b 	ldhu	r9,14(r22)
    1764:	b2800717 	ldw	r10,28(r22)
    1768:	b2c00917 	ldw	r11,36(r22)
    176c:	d9014f17 	ldw	r4,1340(sp)
    1770:	dc402904 	addi	r17,sp,164
    1774:	d8804004 	addi	r2,sp,256
    1778:	00c10004 	movi	r3,1024
    177c:	423fff4c 	andi	r8,r8,65533
    1780:	800d883a 	mov	r6,r16
    1784:	880b883a 	mov	r5,r17
    1788:	da002c0d 	sth	r8,176(sp)
    178c:	da402c8d 	sth	r9,178(sp)
    1790:	da803015 	stw	r10,192(sp)
    1794:	dac03215 	stw	r11,200(sp)
    1798:	d8802d15 	stw	r2,180(sp)
    179c:	d8c02e15 	stw	r3,184(sp)
    17a0:	d8802915 	stw	r2,164(sp)
    17a4:	d8c02b15 	stw	r3,172(sp)
    17a8:	d8002f15 	stw	zero,188(sp)
    17ac:	00016d80 	call	16d8 <___vfprintf_internal_r>
    17b0:	d8814b15 	stw	r2,1324(sp)
    17b4:	10000416 	blt	r2,zero,17c8 <___vfprintf_internal_r+0xf0>
    17b8:	d9014f17 	ldw	r4,1340(sp)
    17bc:	880b883a 	mov	r5,r17
    17c0:	0004eb00 	call	4eb0 <_fflush_r>
    17c4:	1002321e 	bne	r2,zero,2090 <___vfprintf_internal_r+0x9b8>
    17c8:	d8802c0b 	ldhu	r2,176(sp)
    17cc:	1080100c 	andi	r2,r2,64
    17d0:	10000326 	beq	r2,zero,17e0 <___vfprintf_internal_r+0x108>
    17d4:	b080030b 	ldhu	r2,12(r22)
    17d8:	10801014 	ori	r2,r2,64
    17dc:	b080030d 	sth	r2,12(r22)
    17e0:	d8814b17 	ldw	r2,1324(sp)
    17e4:	dfc15b17 	ldw	ra,1388(sp)
    17e8:	df015a17 	ldw	fp,1384(sp)
    17ec:	ddc15917 	ldw	r23,1380(sp)
    17f0:	dd815817 	ldw	r22,1376(sp)
    17f4:	dd415717 	ldw	r21,1372(sp)
    17f8:	dd015617 	ldw	r20,1368(sp)
    17fc:	dcc15517 	ldw	r19,1364(sp)
    1800:	dc815417 	ldw	r18,1360(sp)
    1804:	dc415317 	ldw	r17,1356(sp)
    1808:	dc015217 	ldw	r16,1352(sp)
    180c:	dec15c04 	addi	sp,sp,1392
    1810:	f800283a 	ret
    1814:	0005883a 	mov	r2,zero
    1818:	0007883a 	mov	r3,zero
    181c:	dd401904 	addi	r21,sp,100
    1820:	d8814215 	stw	r2,1288(sp)
    1824:	802f883a 	mov	r23,r16
    1828:	d8c14315 	stw	r3,1292(sp)
    182c:	d8014b15 	stw	zero,1324(sp)
    1830:	d8014815 	stw	zero,1312(sp)
    1834:	d8014415 	stw	zero,1296(sp)
    1838:	d8014715 	stw	zero,1308(sp)
    183c:	dd400c15 	stw	r21,48(sp)
    1840:	d8000e15 	stw	zero,56(sp)
    1844:	d8000d15 	stw	zero,52(sp)
    1848:	b8800007 	ldb	r2,0(r23)
    184c:	10001926 	beq	r2,zero,18b4 <___vfprintf_internal_r+0x1dc>
    1850:	00c00944 	movi	r3,37
    1854:	10c01726 	beq	r2,r3,18b4 <___vfprintf_internal_r+0x1dc>
    1858:	b821883a 	mov	r16,r23
    185c:	00000106 	br	1864 <___vfprintf_internal_r+0x18c>
    1860:	10c00326 	beq	r2,r3,1870 <___vfprintf_internal_r+0x198>
    1864:	84000044 	addi	r16,r16,1
    1868:	80800007 	ldb	r2,0(r16)
    186c:	103ffc1e 	bne	r2,zero,1860 <___vfprintf_internal_r+0x188>
    1870:	85e7c83a 	sub	r19,r16,r23
    1874:	98000e26 	beq	r19,zero,18b0 <___vfprintf_internal_r+0x1d8>
    1878:	dc800e17 	ldw	r18,56(sp)
    187c:	dc400d17 	ldw	r17,52(sp)
    1880:	008001c4 	movi	r2,7
    1884:	94e5883a 	add	r18,r18,r19
    1888:	8c400044 	addi	r17,r17,1
    188c:	adc00015 	stw	r23,0(r21)
    1890:	dc800e15 	stw	r18,56(sp)
    1894:	acc00115 	stw	r19,4(r21)
    1898:	dc400d15 	stw	r17,52(sp)
    189c:	14428b16 	blt	r2,r17,22cc <___vfprintf_internal_r+0xbf4>
    18a0:	ad400204 	addi	r21,r21,8
    18a4:	d9014b17 	ldw	r4,1324(sp)
    18a8:	24c9883a 	add	r4,r4,r19
    18ac:	d9014b15 	stw	r4,1324(sp)
    18b0:	802f883a 	mov	r23,r16
    18b4:	b8800007 	ldb	r2,0(r23)
    18b8:	10013c26 	beq	r2,zero,1dac <___vfprintf_internal_r+0x6d4>
    18bc:	bdc00044 	addi	r23,r23,1
    18c0:	d8000405 	stb	zero,16(sp)
    18c4:	b8c00007 	ldb	r3,0(r23)
    18c8:	04ffffc4 	movi	r19,-1
    18cc:	d8014c15 	stw	zero,1328(sp)
    18d0:	d8014a15 	stw	zero,1320(sp)
    18d4:	d8c14d15 	stw	r3,1332(sp)
    18d8:	bdc00044 	addi	r23,r23,1
    18dc:	d9414d17 	ldw	r5,1332(sp)
    18e0:	00801604 	movi	r2,88
    18e4:	28fff804 	addi	r3,r5,-32
    18e8:	10c06036 	bltu	r2,r3,1a6c <___vfprintf_internal_r+0x394>
    18ec:	18c5883a 	add	r2,r3,r3
    18f0:	1085883a 	add	r2,r2,r2
    18f4:	00c00034 	movhi	r3,0
    18f8:	18c64204 	addi	r3,r3,6408
    18fc:	10c5883a 	add	r2,r2,r3
    1900:	11000017 	ldw	r4,0(r2)
    1904:	2000683a 	jmp	r4
    1908:	0000287c 	xorhi	zero,zero,161
    190c:	00001a6c 	andhi	zero,zero,105
    1910:	00001a6c 	andhi	zero,zero,105
    1914:	00002868 	cmpgeui	zero,zero,161
    1918:	00001a6c 	andhi	zero,zero,105
    191c:	00001a6c 	andhi	zero,zero,105
    1920:	00001a6c 	andhi	zero,zero,105
    1924:	00001a6c 	andhi	zero,zero,105
    1928:	00001a6c 	andhi	zero,zero,105
    192c:	00001a6c 	andhi	zero,zero,105
    1930:	00002648 	cmpgei	zero,zero,153
    1934:	00002858 	cmpnei	zero,zero,161
    1938:	00001a6c 	andhi	zero,zero,105
    193c:	00002660 	cmpeqi	zero,zero,153
    1940:	000028f4 	movhi	zero,163
    1944:	00001a6c 	andhi	zero,zero,105
    1948:	000028e0 	cmpeqi	zero,zero,163
    194c:	000028a8 	cmpgeui	zero,zero,162
    1950:	000028a8 	cmpgeui	zero,zero,162
    1954:	000028a8 	cmpgeui	zero,zero,162
    1958:	000028a8 	cmpgeui	zero,zero,162
    195c:	000028a8 	cmpgeui	zero,zero,162
    1960:	000028a8 	cmpgeui	zero,zero,162
    1964:	000028a8 	cmpgeui	zero,zero,162
    1968:	000028a8 	cmpgeui	zero,zero,162
    196c:	000028a8 	cmpgeui	zero,zero,162
    1970:	00001a6c 	andhi	zero,zero,105
    1974:	00001a6c 	andhi	zero,zero,105
    1978:	00001a6c 	andhi	zero,zero,105
    197c:	00001a6c 	andhi	zero,zero,105
    1980:	00001a6c 	andhi	zero,zero,105
    1984:	00001a6c 	andhi	zero,zero,105
    1988:	00001a6c 	andhi	zero,zero,105
    198c:	00001a6c 	andhi	zero,zero,105
    1990:	00001a6c 	andhi	zero,zero,105
    1994:	00001a6c 	andhi	zero,zero,105
    1998:	000020c4 	movi	zero,131
    199c:	00002730 	cmpltui	zero,zero,156
    19a0:	00001a6c 	andhi	zero,zero,105
    19a4:	00002730 	cmpltui	zero,zero,156
    19a8:	00001a6c 	andhi	zero,zero,105
    19ac:	00001a6c 	andhi	zero,zero,105
    19b0:	00001a6c 	andhi	zero,zero,105
    19b4:	00001a6c 	andhi	zero,zero,105
    19b8:	00002894 	movui	zero,162
    19bc:	00001a6c 	andhi	zero,zero,105
    19c0:	00001a6c 	andhi	zero,zero,105
    19c4:	00002178 	rdprs	zero,zero,133
    19c8:	00001a6c 	andhi	zero,zero,105
    19cc:	00001a6c 	andhi	zero,zero,105
    19d0:	00001a6c 	andhi	zero,zero,105
    19d4:	00001a6c 	andhi	zero,zero,105
    19d8:	00001a6c 	andhi	zero,zero,105
    19dc:	000021c4 	movi	zero,135
    19e0:	00001a6c 	andhi	zero,zero,105
    19e4:	00001a6c 	andhi	zero,zero,105
    19e8:	000027e4 	muli	zero,zero,159
    19ec:	00001a6c 	andhi	zero,zero,105
    19f0:	00001a6c 	andhi	zero,zero,105
    19f4:	00001a6c 	andhi	zero,zero,105
    19f8:	00001a6c 	andhi	zero,zero,105
    19fc:	00001a6c 	andhi	zero,zero,105
    1a00:	00001a6c 	andhi	zero,zero,105
    1a04:	00001a6c 	andhi	zero,zero,105
    1a08:	00001a6c 	andhi	zero,zero,105
    1a0c:	00001a6c 	andhi	zero,zero,105
    1a10:	00001a6c 	andhi	zero,zero,105
    1a14:	000027b8 	rdprs	zero,zero,158
    1a18:	000020d0 	cmplti	zero,zero,131
    1a1c:	00002730 	cmpltui	zero,zero,156
    1a20:	00002730 	cmpltui	zero,zero,156
    1a24:	00002730 	cmpltui	zero,zero,156
    1a28:	0000271c 	xori	zero,zero,156
    1a2c:	000020d0 	cmplti	zero,zero,131
    1a30:	00001a6c 	andhi	zero,zero,105
    1a34:	00001a6c 	andhi	zero,zero,105
    1a38:	000026a4 	muli	zero,zero,154
    1a3c:	00001a6c 	andhi	zero,zero,105
    1a40:	00002674 	movhi	zero,153
    1a44:	00002184 	movi	zero,134
    1a48:	000026d4 	movui	zero,155
    1a4c:	000026c0 	call	26c <init+0x6c>
    1a50:	00001a6c 	andhi	zero,zero,105
    1a54:	00002950 	cmplti	zero,zero,165
    1a58:	00001a6c 	andhi	zero,zero,105
    1a5c:	000021d0 	cmplti	zero,zero,135
    1a60:	00001a6c 	andhi	zero,zero,105
    1a64:	00001a6c 	andhi	zero,zero,105
    1a68:	00002848 	cmpgei	zero,zero,161
    1a6c:	d9014d17 	ldw	r4,1332(sp)
    1a70:	2000ce26 	beq	r4,zero,1dac <___vfprintf_internal_r+0x6d4>
    1a74:	01400044 	movi	r5,1
    1a78:	d9800f04 	addi	r6,sp,60
    1a7c:	d9c14015 	stw	r7,1280(sp)
    1a80:	d9414515 	stw	r5,1300(sp)
    1a84:	d9814115 	stw	r6,1284(sp)
    1a88:	280f883a 	mov	r7,r5
    1a8c:	d9000f05 	stb	r4,60(sp)
    1a90:	d8000405 	stb	zero,16(sp)
    1a94:	d8014615 	stw	zero,1304(sp)
    1a98:	d8c14c17 	ldw	r3,1328(sp)
    1a9c:	1880008c 	andi	r2,r3,2
    1aa0:	1005003a 	cmpeq	r2,r2,zero
    1aa4:	d8815015 	stw	r2,1344(sp)
    1aa8:	1000031e 	bne	r2,zero,1ab8 <___vfprintf_internal_r+0x3e0>
    1aac:	d9014517 	ldw	r4,1300(sp)
    1ab0:	21000084 	addi	r4,r4,2
    1ab4:	d9014515 	stw	r4,1300(sp)
    1ab8:	d9414c17 	ldw	r5,1328(sp)
    1abc:	2940210c 	andi	r5,r5,132
    1ac0:	d9414e15 	stw	r5,1336(sp)
    1ac4:	28002d1e 	bne	r5,zero,1b7c <___vfprintf_internal_r+0x4a4>
    1ac8:	d9814a17 	ldw	r6,1320(sp)
    1acc:	d8814517 	ldw	r2,1300(sp)
    1ad0:	30a1c83a 	sub	r16,r6,r2
    1ad4:	0400290e 	bge	zero,r16,1b7c <___vfprintf_internal_r+0x4a4>
    1ad8:	00800404 	movi	r2,16
    1adc:	1404580e 	bge	r2,r16,2c40 <___vfprintf_internal_r+0x1568>
    1ae0:	dc800e17 	ldw	r18,56(sp)
    1ae4:	dc400d17 	ldw	r17,52(sp)
    1ae8:	1027883a 	mov	r19,r2
    1aec:	07000074 	movhi	fp,1
    1af0:	e73a8484 	addi	fp,fp,-5614
    1af4:	050001c4 	movi	r20,7
    1af8:	00000306 	br	1b08 <___vfprintf_internal_r+0x430>
    1afc:	843ffc04 	addi	r16,r16,-16
    1b00:	ad400204 	addi	r21,r21,8
    1b04:	9c00130e 	bge	r19,r16,1b54 <___vfprintf_internal_r+0x47c>
    1b08:	94800404 	addi	r18,r18,16
    1b0c:	8c400044 	addi	r17,r17,1
    1b10:	af000015 	stw	fp,0(r21)
    1b14:	acc00115 	stw	r19,4(r21)
    1b18:	dc800e15 	stw	r18,56(sp)
    1b1c:	dc400d15 	stw	r17,52(sp)
    1b20:	a47ff60e 	bge	r20,r17,1afc <___vfprintf_internal_r+0x424>
    1b24:	d9014f17 	ldw	r4,1340(sp)
    1b28:	b00b883a 	mov	r5,r22
    1b2c:	d9800c04 	addi	r6,sp,48
    1b30:	d9c15115 	stw	r7,1348(sp)
    1b34:	00016800 	call	1680 <__sprint_r>
    1b38:	d9c15117 	ldw	r7,1348(sp)
    1b3c:	10009e1e 	bne	r2,zero,1db8 <___vfprintf_internal_r+0x6e0>
    1b40:	843ffc04 	addi	r16,r16,-16
    1b44:	dc800e17 	ldw	r18,56(sp)
    1b48:	dc400d17 	ldw	r17,52(sp)
    1b4c:	dd401904 	addi	r21,sp,100
    1b50:	9c3fed16 	blt	r19,r16,1b08 <___vfprintf_internal_r+0x430>
    1b54:	9425883a 	add	r18,r18,r16
    1b58:	8c400044 	addi	r17,r17,1
    1b5c:	008001c4 	movi	r2,7
    1b60:	af000015 	stw	fp,0(r21)
    1b64:	ac000115 	stw	r16,4(r21)
    1b68:	dc800e15 	stw	r18,56(sp)
    1b6c:	dc400d15 	stw	r17,52(sp)
    1b70:	1441f516 	blt	r2,r17,2348 <___vfprintf_internal_r+0xc70>
    1b74:	ad400204 	addi	r21,r21,8
    1b78:	00000206 	br	1b84 <___vfprintf_internal_r+0x4ac>
    1b7c:	dc800e17 	ldw	r18,56(sp)
    1b80:	dc400d17 	ldw	r17,52(sp)
    1b84:	d8800407 	ldb	r2,16(sp)
    1b88:	10000b26 	beq	r2,zero,1bb8 <___vfprintf_internal_r+0x4e0>
    1b8c:	00800044 	movi	r2,1
    1b90:	94800044 	addi	r18,r18,1
    1b94:	8c400044 	addi	r17,r17,1
    1b98:	a8800115 	stw	r2,4(r21)
    1b9c:	d8c00404 	addi	r3,sp,16
    1ba0:	008001c4 	movi	r2,7
    1ba4:	a8c00015 	stw	r3,0(r21)
    1ba8:	dc800e15 	stw	r18,56(sp)
    1bac:	dc400d15 	stw	r17,52(sp)
    1bb0:	1441da16 	blt	r2,r17,231c <___vfprintf_internal_r+0xc44>
    1bb4:	ad400204 	addi	r21,r21,8
    1bb8:	d9015017 	ldw	r4,1344(sp)
    1bbc:	20000b1e 	bne	r4,zero,1bec <___vfprintf_internal_r+0x514>
    1bc0:	d8800444 	addi	r2,sp,17
    1bc4:	94800084 	addi	r18,r18,2
    1bc8:	8c400044 	addi	r17,r17,1
    1bcc:	a8800015 	stw	r2,0(r21)
    1bd0:	00c00084 	movi	r3,2
    1bd4:	008001c4 	movi	r2,7
    1bd8:	a8c00115 	stw	r3,4(r21)
    1bdc:	dc800e15 	stw	r18,56(sp)
    1be0:	dc400d15 	stw	r17,52(sp)
    1be4:	1441c216 	blt	r2,r17,22f0 <___vfprintf_internal_r+0xc18>
    1be8:	ad400204 	addi	r21,r21,8
    1bec:	d9414e17 	ldw	r5,1336(sp)
    1bf0:	00802004 	movi	r2,128
    1bf4:	2880b126 	beq	r5,r2,1ebc <___vfprintf_internal_r+0x7e4>
    1bf8:	d8c14617 	ldw	r3,1304(sp)
    1bfc:	19e1c83a 	sub	r16,r3,r7
    1c00:	0400260e 	bge	zero,r16,1c9c <___vfprintf_internal_r+0x5c4>
    1c04:	00800404 	movi	r2,16
    1c08:	1403c90e 	bge	r2,r16,2b30 <___vfprintf_internal_r+0x1458>
    1c0c:	1027883a 	mov	r19,r2
    1c10:	07000074 	movhi	fp,1
    1c14:	e73a8084 	addi	fp,fp,-5630
    1c18:	050001c4 	movi	r20,7
    1c1c:	00000306 	br	1c2c <___vfprintf_internal_r+0x554>
    1c20:	843ffc04 	addi	r16,r16,-16
    1c24:	ad400204 	addi	r21,r21,8
    1c28:	9c00130e 	bge	r19,r16,1c78 <___vfprintf_internal_r+0x5a0>
    1c2c:	94800404 	addi	r18,r18,16
    1c30:	8c400044 	addi	r17,r17,1
    1c34:	af000015 	stw	fp,0(r21)
    1c38:	acc00115 	stw	r19,4(r21)
    1c3c:	dc800e15 	stw	r18,56(sp)
    1c40:	dc400d15 	stw	r17,52(sp)
    1c44:	a47ff60e 	bge	r20,r17,1c20 <___vfprintf_internal_r+0x548>
    1c48:	d9014f17 	ldw	r4,1340(sp)
    1c4c:	b00b883a 	mov	r5,r22
    1c50:	d9800c04 	addi	r6,sp,48
    1c54:	d9c15115 	stw	r7,1348(sp)
    1c58:	00016800 	call	1680 <__sprint_r>
    1c5c:	d9c15117 	ldw	r7,1348(sp)
    1c60:	1000551e 	bne	r2,zero,1db8 <___vfprintf_internal_r+0x6e0>
    1c64:	843ffc04 	addi	r16,r16,-16
    1c68:	dc800e17 	ldw	r18,56(sp)
    1c6c:	dc400d17 	ldw	r17,52(sp)
    1c70:	dd401904 	addi	r21,sp,100
    1c74:	9c3fed16 	blt	r19,r16,1c2c <___vfprintf_internal_r+0x554>
    1c78:	9425883a 	add	r18,r18,r16
    1c7c:	8c400044 	addi	r17,r17,1
    1c80:	008001c4 	movi	r2,7
    1c84:	af000015 	stw	fp,0(r21)
    1c88:	ac000115 	stw	r16,4(r21)
    1c8c:	dc800e15 	stw	r18,56(sp)
    1c90:	dc400d15 	stw	r17,52(sp)
    1c94:	14418216 	blt	r2,r17,22a0 <___vfprintf_internal_r+0xbc8>
    1c98:	ad400204 	addi	r21,r21,8
    1c9c:	d9014c17 	ldw	r4,1328(sp)
    1ca0:	2080400c 	andi	r2,r4,256
    1ca4:	10004a1e 	bne	r2,zero,1dd0 <___vfprintf_internal_r+0x6f8>
    1ca8:	d9414117 	ldw	r5,1284(sp)
    1cac:	91e5883a 	add	r18,r18,r7
    1cb0:	8c400044 	addi	r17,r17,1
    1cb4:	008001c4 	movi	r2,7
    1cb8:	a9400015 	stw	r5,0(r21)
    1cbc:	a9c00115 	stw	r7,4(r21)
    1cc0:	dc800e15 	stw	r18,56(sp)
    1cc4:	dc400d15 	stw	r17,52(sp)
    1cc8:	14416716 	blt	r2,r17,2268 <___vfprintf_internal_r+0xb90>
    1ccc:	a8c00204 	addi	r3,r21,8
    1cd0:	d9814c17 	ldw	r6,1328(sp)
    1cd4:	3080010c 	andi	r2,r6,4
    1cd8:	10002826 	beq	r2,zero,1d7c <___vfprintf_internal_r+0x6a4>
    1cdc:	d8814a17 	ldw	r2,1320(sp)
    1ce0:	d9014517 	ldw	r4,1300(sp)
    1ce4:	1121c83a 	sub	r16,r2,r4
    1ce8:	0400240e 	bge	zero,r16,1d7c <___vfprintf_internal_r+0x6a4>
    1cec:	00800404 	movi	r2,16
    1cf0:	14044f0e 	bge	r2,r16,2e30 <___vfprintf_internal_r+0x1758>
    1cf4:	dc400d17 	ldw	r17,52(sp)
    1cf8:	1027883a 	mov	r19,r2
    1cfc:	07000074 	movhi	fp,1
    1d00:	e73a8484 	addi	fp,fp,-5614
    1d04:	050001c4 	movi	r20,7
    1d08:	00000306 	br	1d18 <___vfprintf_internal_r+0x640>
    1d0c:	843ffc04 	addi	r16,r16,-16
    1d10:	18c00204 	addi	r3,r3,8
    1d14:	9c00110e 	bge	r19,r16,1d5c <___vfprintf_internal_r+0x684>
    1d18:	94800404 	addi	r18,r18,16
    1d1c:	8c400044 	addi	r17,r17,1
    1d20:	1f000015 	stw	fp,0(r3)
    1d24:	1cc00115 	stw	r19,4(r3)
    1d28:	dc800e15 	stw	r18,56(sp)
    1d2c:	dc400d15 	stw	r17,52(sp)
    1d30:	a47ff60e 	bge	r20,r17,1d0c <___vfprintf_internal_r+0x634>
    1d34:	d9014f17 	ldw	r4,1340(sp)
    1d38:	b00b883a 	mov	r5,r22
    1d3c:	d9800c04 	addi	r6,sp,48
    1d40:	00016800 	call	1680 <__sprint_r>
    1d44:	10001c1e 	bne	r2,zero,1db8 <___vfprintf_internal_r+0x6e0>
    1d48:	843ffc04 	addi	r16,r16,-16
    1d4c:	dc800e17 	ldw	r18,56(sp)
    1d50:	dc400d17 	ldw	r17,52(sp)
    1d54:	d8c01904 	addi	r3,sp,100
    1d58:	9c3fef16 	blt	r19,r16,1d18 <___vfprintf_internal_r+0x640>
    1d5c:	9425883a 	add	r18,r18,r16
    1d60:	8c400044 	addi	r17,r17,1
    1d64:	008001c4 	movi	r2,7
    1d68:	1f000015 	stw	fp,0(r3)
    1d6c:	1c000115 	stw	r16,4(r3)
    1d70:	dc800e15 	stw	r18,56(sp)
    1d74:	dc400d15 	stw	r17,52(sp)
    1d78:	1440cb16 	blt	r2,r17,20a8 <___vfprintf_internal_r+0x9d0>
    1d7c:	d8814a17 	ldw	r2,1320(sp)
    1d80:	d9414517 	ldw	r5,1300(sp)
    1d84:	1140010e 	bge	r2,r5,1d8c <___vfprintf_internal_r+0x6b4>
    1d88:	2805883a 	mov	r2,r5
    1d8c:	d9814b17 	ldw	r6,1324(sp)
    1d90:	308d883a 	add	r6,r6,r2
    1d94:	d9814b15 	stw	r6,1324(sp)
    1d98:	90013b1e 	bne	r18,zero,2288 <___vfprintf_internal_r+0xbb0>
    1d9c:	d9c14017 	ldw	r7,1280(sp)
    1da0:	dd401904 	addi	r21,sp,100
    1da4:	d8000d15 	stw	zero,52(sp)
    1da8:	003ea706 	br	1848 <___vfprintf_internal_r+0x170>
    1dac:	d8800e17 	ldw	r2,56(sp)
    1db0:	10053f1e 	bne	r2,zero,32b0 <___vfprintf_internal_r+0x1bd8>
    1db4:	d8000d15 	stw	zero,52(sp)
    1db8:	b080030b 	ldhu	r2,12(r22)
    1dbc:	1080100c 	andi	r2,r2,64
    1dc0:	103e8726 	beq	r2,zero,17e0 <___vfprintf_internal_r+0x108>
    1dc4:	00bfffc4 	movi	r2,-1
    1dc8:	d8814b15 	stw	r2,1324(sp)
    1dcc:	003e8406 	br	17e0 <___vfprintf_internal_r+0x108>
    1dd0:	d9814d17 	ldw	r6,1332(sp)
    1dd4:	00801944 	movi	r2,101
    1dd8:	11806e16 	blt	r2,r6,1f94 <___vfprintf_internal_r+0x8bc>
    1ddc:	d9414717 	ldw	r5,1308(sp)
    1de0:	00c00044 	movi	r3,1
    1de4:	1943430e 	bge	r3,r5,2af4 <___vfprintf_internal_r+0x141c>
    1de8:	d8814117 	ldw	r2,1284(sp)
    1dec:	94800044 	addi	r18,r18,1
    1df0:	8c400044 	addi	r17,r17,1
    1df4:	a8800015 	stw	r2,0(r21)
    1df8:	008001c4 	movi	r2,7
    1dfc:	a8c00115 	stw	r3,4(r21)
    1e00:	dc800e15 	stw	r18,56(sp)
    1e04:	dc400d15 	stw	r17,52(sp)
    1e08:	1441ca16 	blt	r2,r17,2534 <___vfprintf_internal_r+0xe5c>
    1e0c:	a8c00204 	addi	r3,r21,8
    1e10:	d9014917 	ldw	r4,1316(sp)
    1e14:	00800044 	movi	r2,1
    1e18:	94800044 	addi	r18,r18,1
    1e1c:	8c400044 	addi	r17,r17,1
    1e20:	18800115 	stw	r2,4(r3)
    1e24:	008001c4 	movi	r2,7
    1e28:	19000015 	stw	r4,0(r3)
    1e2c:	dc800e15 	stw	r18,56(sp)
    1e30:	dc400d15 	stw	r17,52(sp)
    1e34:	1441b616 	blt	r2,r17,2510 <___vfprintf_internal_r+0xe38>
    1e38:	1cc00204 	addi	r19,r3,8
    1e3c:	d9014217 	ldw	r4,1288(sp)
    1e40:	d9414317 	ldw	r5,1292(sp)
    1e44:	000d883a 	mov	r6,zero
    1e48:	000f883a 	mov	r7,zero
    1e4c:	0009f280 	call	9f28 <__nedf2>
    1e50:	10017426 	beq	r2,zero,2424 <___vfprintf_internal_r+0xd4c>
    1e54:	d9414717 	ldw	r5,1308(sp)
    1e58:	d9814117 	ldw	r6,1284(sp)
    1e5c:	8c400044 	addi	r17,r17,1
    1e60:	2c85883a 	add	r2,r5,r18
    1e64:	14bfffc4 	addi	r18,r2,-1
    1e68:	28bfffc4 	addi	r2,r5,-1
    1e6c:	30c00044 	addi	r3,r6,1
    1e70:	98800115 	stw	r2,4(r19)
    1e74:	008001c4 	movi	r2,7
    1e78:	98c00015 	stw	r3,0(r19)
    1e7c:	dc800e15 	stw	r18,56(sp)
    1e80:	dc400d15 	stw	r17,52(sp)
    1e84:	14418e16 	blt	r2,r17,24c0 <___vfprintf_internal_r+0xde8>
    1e88:	9cc00204 	addi	r19,r19,8
    1e8c:	d9414817 	ldw	r5,1312(sp)
    1e90:	d8800804 	addi	r2,sp,32
    1e94:	8c400044 	addi	r17,r17,1
    1e98:	9165883a 	add	r18,r18,r5
    1e9c:	98800015 	stw	r2,0(r19)
    1ea0:	008001c4 	movi	r2,7
    1ea4:	99400115 	stw	r5,4(r19)
    1ea8:	dc800e15 	stw	r18,56(sp)
    1eac:	dc400d15 	stw	r17,52(sp)
    1eb0:	1440ed16 	blt	r2,r17,2268 <___vfprintf_internal_r+0xb90>
    1eb4:	98c00204 	addi	r3,r19,8
    1eb8:	003f8506 	br	1cd0 <___vfprintf_internal_r+0x5f8>
    1ebc:	d9814a17 	ldw	r6,1320(sp)
    1ec0:	d8814517 	ldw	r2,1300(sp)
    1ec4:	30a1c83a 	sub	r16,r6,r2
    1ec8:	043f4b0e 	bge	zero,r16,1bf8 <___vfprintf_internal_r+0x520>
    1ecc:	00800404 	movi	r2,16
    1ed0:	1404340e 	bge	r2,r16,2fa4 <___vfprintf_internal_r+0x18cc>
    1ed4:	1027883a 	mov	r19,r2
    1ed8:	07000074 	movhi	fp,1
    1edc:	e73a8084 	addi	fp,fp,-5630
    1ee0:	050001c4 	movi	r20,7
    1ee4:	00000306 	br	1ef4 <___vfprintf_internal_r+0x81c>
    1ee8:	843ffc04 	addi	r16,r16,-16
    1eec:	ad400204 	addi	r21,r21,8
    1ef0:	9c00130e 	bge	r19,r16,1f40 <___vfprintf_internal_r+0x868>
    1ef4:	94800404 	addi	r18,r18,16
    1ef8:	8c400044 	addi	r17,r17,1
    1efc:	af000015 	stw	fp,0(r21)
    1f00:	acc00115 	stw	r19,4(r21)
    1f04:	dc800e15 	stw	r18,56(sp)
    1f08:	dc400d15 	stw	r17,52(sp)
    1f0c:	a47ff60e 	bge	r20,r17,1ee8 <___vfprintf_internal_r+0x810>
    1f10:	d9014f17 	ldw	r4,1340(sp)
    1f14:	b00b883a 	mov	r5,r22
    1f18:	d9800c04 	addi	r6,sp,48
    1f1c:	d9c15115 	stw	r7,1348(sp)
    1f20:	00016800 	call	1680 <__sprint_r>
    1f24:	d9c15117 	ldw	r7,1348(sp)
    1f28:	103fa31e 	bne	r2,zero,1db8 <___vfprintf_internal_r+0x6e0>
    1f2c:	843ffc04 	addi	r16,r16,-16
    1f30:	dc800e17 	ldw	r18,56(sp)
    1f34:	dc400d17 	ldw	r17,52(sp)
    1f38:	dd401904 	addi	r21,sp,100
    1f3c:	9c3fed16 	blt	r19,r16,1ef4 <___vfprintf_internal_r+0x81c>
    1f40:	9425883a 	add	r18,r18,r16
    1f44:	8c400044 	addi	r17,r17,1
    1f48:	008001c4 	movi	r2,7
    1f4c:	af000015 	stw	fp,0(r21)
    1f50:	ac000115 	stw	r16,4(r21)
    1f54:	dc800e15 	stw	r18,56(sp)
    1f58:	dc400d15 	stw	r17,52(sp)
    1f5c:	14416116 	blt	r2,r17,24e4 <___vfprintf_internal_r+0xe0c>
    1f60:	ad400204 	addi	r21,r21,8
    1f64:	003f2406 	br	1bf8 <___vfprintf_internal_r+0x520>
    1f68:	d9014f17 	ldw	r4,1340(sp)
    1f6c:	00051480 	call	5148 <__sinit>
    1f70:	d9c15117 	ldw	r7,1348(sp)
    1f74:	003def06 	br	1734 <___vfprintf_internal_r+0x5c>
    1f78:	d9014f17 	ldw	r4,1340(sp)
    1f7c:	b00b883a 	mov	r5,r22
    1f80:	d9c15115 	stw	r7,1348(sp)
    1f84:	00035a80 	call	35a8 <__swsetup_r>
    1f88:	d9c15117 	ldw	r7,1348(sp)
    1f8c:	103dee26 	beq	r2,zero,1748 <___vfprintf_internal_r+0x70>
    1f90:	003f8c06 	br	1dc4 <___vfprintf_internal_r+0x6ec>
    1f94:	d9014217 	ldw	r4,1288(sp)
    1f98:	d9414317 	ldw	r5,1292(sp)
    1f9c:	000d883a 	mov	r6,zero
    1fa0:	000f883a 	mov	r7,zero
    1fa4:	0009ea00 	call	9ea0 <__eqdf2>
    1fa8:	1000f21e 	bne	r2,zero,2374 <___vfprintf_internal_r+0xc9c>
    1fac:	00800074 	movhi	r2,1
    1fb0:	10ba8004 	addi	r2,r2,-5632
    1fb4:	94800044 	addi	r18,r18,1
    1fb8:	8c400044 	addi	r17,r17,1
    1fbc:	a8800015 	stw	r2,0(r21)
    1fc0:	00c00044 	movi	r3,1
    1fc4:	008001c4 	movi	r2,7
    1fc8:	a8c00115 	stw	r3,4(r21)
    1fcc:	dc800e15 	stw	r18,56(sp)
    1fd0:	dc400d15 	stw	r17,52(sp)
    1fd4:	1442fa16 	blt	r2,r17,2bc0 <___vfprintf_internal_r+0x14e8>
    1fd8:	a8c00204 	addi	r3,r21,8
    1fdc:	d8800517 	ldw	r2,20(sp)
    1fe0:	d9014717 	ldw	r4,1308(sp)
    1fe4:	11015c0e 	bge	r2,r4,2558 <___vfprintf_internal_r+0xe80>
    1fe8:	dc400d17 	ldw	r17,52(sp)
    1fec:	d9814917 	ldw	r6,1316(sp)
    1ff0:	00800044 	movi	r2,1
    1ff4:	94800044 	addi	r18,r18,1
    1ff8:	8c400044 	addi	r17,r17,1
    1ffc:	18800115 	stw	r2,4(r3)
    2000:	008001c4 	movi	r2,7
    2004:	19800015 	stw	r6,0(r3)
    2008:	dc800e15 	stw	r18,56(sp)
    200c:	dc400d15 	stw	r17,52(sp)
    2010:	14431016 	blt	r2,r17,2c54 <___vfprintf_internal_r+0x157c>
    2014:	18c00204 	addi	r3,r3,8
    2018:	d8814717 	ldw	r2,1308(sp)
    201c:	143fffc4 	addi	r16,r2,-1
    2020:	043f2b0e 	bge	zero,r16,1cd0 <___vfprintf_internal_r+0x5f8>
    2024:	00800404 	movi	r2,16
    2028:	1402a20e 	bge	r2,r16,2ab4 <___vfprintf_internal_r+0x13dc>
    202c:	dc400d17 	ldw	r17,52(sp)
    2030:	1027883a 	mov	r19,r2
    2034:	07000074 	movhi	fp,1
    2038:	e73a8084 	addi	fp,fp,-5630
    203c:	050001c4 	movi	r20,7
    2040:	00000306 	br	2050 <___vfprintf_internal_r+0x978>
    2044:	18c00204 	addi	r3,r3,8
    2048:	843ffc04 	addi	r16,r16,-16
    204c:	9c029c0e 	bge	r19,r16,2ac0 <___vfprintf_internal_r+0x13e8>
    2050:	94800404 	addi	r18,r18,16
    2054:	8c400044 	addi	r17,r17,1
    2058:	1f000015 	stw	fp,0(r3)
    205c:	1cc00115 	stw	r19,4(r3)
    2060:	dc800e15 	stw	r18,56(sp)
    2064:	dc400d15 	stw	r17,52(sp)
    2068:	a47ff60e 	bge	r20,r17,2044 <___vfprintf_internal_r+0x96c>
    206c:	d9014f17 	ldw	r4,1340(sp)
    2070:	b00b883a 	mov	r5,r22
    2074:	d9800c04 	addi	r6,sp,48
    2078:	00016800 	call	1680 <__sprint_r>
    207c:	103f4e1e 	bne	r2,zero,1db8 <___vfprintf_internal_r+0x6e0>
    2080:	dc800e17 	ldw	r18,56(sp)
    2084:	dc400d17 	ldw	r17,52(sp)
    2088:	d8c01904 	addi	r3,sp,100
    208c:	003fee06 	br	2048 <___vfprintf_internal_r+0x970>
    2090:	d8802c0b 	ldhu	r2,176(sp)
    2094:	00ffffc4 	movi	r3,-1
    2098:	d8c14b15 	stw	r3,1324(sp)
    209c:	1080100c 	andi	r2,r2,64
    20a0:	103dcc1e 	bne	r2,zero,17d4 <___vfprintf_internal_r+0xfc>
    20a4:	003dce06 	br	17e0 <___vfprintf_internal_r+0x108>
    20a8:	d9014f17 	ldw	r4,1340(sp)
    20ac:	b00b883a 	mov	r5,r22
    20b0:	d9800c04 	addi	r6,sp,48
    20b4:	00016800 	call	1680 <__sprint_r>
    20b8:	103f3f1e 	bne	r2,zero,1db8 <___vfprintf_internal_r+0x6e0>
    20bc:	dc800e17 	ldw	r18,56(sp)
    20c0:	003f2e06 	br	1d7c <___vfprintf_internal_r+0x6a4>
    20c4:	d9414c17 	ldw	r5,1328(sp)
    20c8:	29400414 	ori	r5,r5,16
    20cc:	d9414c15 	stw	r5,1328(sp)
    20d0:	d9814c17 	ldw	r6,1328(sp)
    20d4:	3080080c 	andi	r2,r6,32
    20d8:	10014f1e 	bne	r2,zero,2618 <___vfprintf_internal_r+0xf40>
    20dc:	d8c14c17 	ldw	r3,1328(sp)
    20e0:	1880040c 	andi	r2,r3,16
    20e4:	1002ea1e 	bne	r2,zero,2c90 <___vfprintf_internal_r+0x15b8>
    20e8:	d9014c17 	ldw	r4,1328(sp)
    20ec:	2080100c 	andi	r2,r4,64
    20f0:	1002e726 	beq	r2,zero,2c90 <___vfprintf_internal_r+0x15b8>
    20f4:	3880000f 	ldh	r2,0(r7)
    20f8:	39c00104 	addi	r7,r7,4
    20fc:	d9c14015 	stw	r7,1280(sp)
    2100:	1023d7fa 	srai	r17,r2,31
    2104:	1021883a 	mov	r16,r2
    2108:	88037216 	blt	r17,zero,2ed4 <___vfprintf_internal_r+0x17fc>
    210c:	01000044 	movi	r4,1
    2110:	98000416 	blt	r19,zero,2124 <___vfprintf_internal_r+0xa4c>
    2114:	d8c14c17 	ldw	r3,1328(sp)
    2118:	00bfdfc4 	movi	r2,-129
    211c:	1886703a 	and	r3,r3,r2
    2120:	d8c14c15 	stw	r3,1328(sp)
    2124:	8444b03a 	or	r2,r16,r17
    2128:	1002261e 	bne	r2,zero,29c4 <___vfprintf_internal_r+0x12ec>
    212c:	9802251e 	bne	r19,zero,29c4 <___vfprintf_internal_r+0x12ec>
    2130:	20803fcc 	andi	r2,r4,255
    2134:	10029b26 	beq	r2,zero,2ba4 <___vfprintf_internal_r+0x14cc>
    2138:	d8c01904 	addi	r3,sp,100
    213c:	dd000f04 	addi	r20,sp,60
    2140:	d8c14115 	stw	r3,1284(sp)
    2144:	d8c14117 	ldw	r3,1284(sp)
    2148:	dcc14515 	stw	r19,1300(sp)
    214c:	a0c5c83a 	sub	r2,r20,r3
    2150:	11c00a04 	addi	r7,r2,40
    2154:	99c0010e 	bge	r19,r7,215c <___vfprintf_internal_r+0xa84>
    2158:	d9c14515 	stw	r7,1300(sp)
    215c:	dcc14615 	stw	r19,1304(sp)
    2160:	d8800407 	ldb	r2,16(sp)
    2164:	103e4c26 	beq	r2,zero,1a98 <___vfprintf_internal_r+0x3c0>
    2168:	d8814517 	ldw	r2,1300(sp)
    216c:	10800044 	addi	r2,r2,1
    2170:	d8814515 	stw	r2,1300(sp)
    2174:	003e4806 	br	1a98 <___vfprintf_internal_r+0x3c0>
    2178:	d9814c17 	ldw	r6,1328(sp)
    217c:	31800414 	ori	r6,r6,16
    2180:	d9814c15 	stw	r6,1328(sp)
    2184:	d8c14c17 	ldw	r3,1328(sp)
    2188:	1880080c 	andi	r2,r3,32
    218c:	1001271e 	bne	r2,zero,262c <___vfprintf_internal_r+0xf54>
    2190:	d9414c17 	ldw	r5,1328(sp)
    2194:	2880040c 	andi	r2,r5,16
    2198:	1002b61e 	bne	r2,zero,2c74 <___vfprintf_internal_r+0x159c>
    219c:	d9814c17 	ldw	r6,1328(sp)
    21a0:	3080100c 	andi	r2,r6,64
    21a4:	1002b326 	beq	r2,zero,2c74 <___vfprintf_internal_r+0x159c>
    21a8:	3c00000b 	ldhu	r16,0(r7)
    21ac:	0009883a 	mov	r4,zero
    21b0:	39c00104 	addi	r7,r7,4
    21b4:	0023883a 	mov	r17,zero
    21b8:	d9c14015 	stw	r7,1280(sp)
    21bc:	d8000405 	stb	zero,16(sp)
    21c0:	003fd306 	br	2110 <___vfprintf_internal_r+0xa38>
    21c4:	d9014c17 	ldw	r4,1328(sp)
    21c8:	21000414 	ori	r4,r4,16
    21cc:	d9014c15 	stw	r4,1328(sp)
    21d0:	d9414c17 	ldw	r5,1328(sp)
    21d4:	2880080c 	andi	r2,r5,32
    21d8:	1001081e 	bne	r2,zero,25fc <___vfprintf_internal_r+0xf24>
    21dc:	d8c14c17 	ldw	r3,1328(sp)
    21e0:	1880040c 	andi	r2,r3,16
    21e4:	1002b01e 	bne	r2,zero,2ca8 <___vfprintf_internal_r+0x15d0>
    21e8:	d9014c17 	ldw	r4,1328(sp)
    21ec:	2080100c 	andi	r2,r4,64
    21f0:	1002ad26 	beq	r2,zero,2ca8 <___vfprintf_internal_r+0x15d0>
    21f4:	3c00000b 	ldhu	r16,0(r7)
    21f8:	01000044 	movi	r4,1
    21fc:	39c00104 	addi	r7,r7,4
    2200:	0023883a 	mov	r17,zero
    2204:	d9c14015 	stw	r7,1280(sp)
    2208:	d8000405 	stb	zero,16(sp)
    220c:	003fc006 	br	2110 <___vfprintf_internal_r+0xa38>
    2210:	d9014f17 	ldw	r4,1340(sp)
    2214:	b00b883a 	mov	r5,r22
    2218:	d9800c04 	addi	r6,sp,48
    221c:	00016800 	call	1680 <__sprint_r>
    2220:	103ee51e 	bne	r2,zero,1db8 <___vfprintf_internal_r+0x6e0>
    2224:	dc800e17 	ldw	r18,56(sp)
    2228:	d8c01904 	addi	r3,sp,100
    222c:	d9814c17 	ldw	r6,1328(sp)
    2230:	3080004c 	andi	r2,r6,1
    2234:	1005003a 	cmpeq	r2,r2,zero
    2238:	103ea51e 	bne	r2,zero,1cd0 <___vfprintf_internal_r+0x5f8>
    223c:	00800044 	movi	r2,1
    2240:	dc400d17 	ldw	r17,52(sp)
    2244:	18800115 	stw	r2,4(r3)
    2248:	d8814917 	ldw	r2,1316(sp)
    224c:	94800044 	addi	r18,r18,1
    2250:	8c400044 	addi	r17,r17,1
    2254:	18800015 	stw	r2,0(r3)
    2258:	008001c4 	movi	r2,7
    225c:	dc800e15 	stw	r18,56(sp)
    2260:	dc400d15 	stw	r17,52(sp)
    2264:	14421e0e 	bge	r2,r17,2ae0 <___vfprintf_internal_r+0x1408>
    2268:	d9014f17 	ldw	r4,1340(sp)
    226c:	b00b883a 	mov	r5,r22
    2270:	d9800c04 	addi	r6,sp,48
    2274:	00016800 	call	1680 <__sprint_r>
    2278:	103ecf1e 	bne	r2,zero,1db8 <___vfprintf_internal_r+0x6e0>
    227c:	dc800e17 	ldw	r18,56(sp)
    2280:	d8c01904 	addi	r3,sp,100
    2284:	003e9206 	br	1cd0 <___vfprintf_internal_r+0x5f8>
    2288:	d9014f17 	ldw	r4,1340(sp)
    228c:	b00b883a 	mov	r5,r22
    2290:	d9800c04 	addi	r6,sp,48
    2294:	00016800 	call	1680 <__sprint_r>
    2298:	103ec026 	beq	r2,zero,1d9c <___vfprintf_internal_r+0x6c4>
    229c:	003ec606 	br	1db8 <___vfprintf_internal_r+0x6e0>
    22a0:	d9014f17 	ldw	r4,1340(sp)
    22a4:	b00b883a 	mov	r5,r22
    22a8:	d9800c04 	addi	r6,sp,48
    22ac:	d9c15115 	stw	r7,1348(sp)
    22b0:	00016800 	call	1680 <__sprint_r>
    22b4:	d9c15117 	ldw	r7,1348(sp)
    22b8:	103ebf1e 	bne	r2,zero,1db8 <___vfprintf_internal_r+0x6e0>
    22bc:	dc800e17 	ldw	r18,56(sp)
    22c0:	dc400d17 	ldw	r17,52(sp)
    22c4:	dd401904 	addi	r21,sp,100
    22c8:	003e7406 	br	1c9c <___vfprintf_internal_r+0x5c4>
    22cc:	d9014f17 	ldw	r4,1340(sp)
    22d0:	b00b883a 	mov	r5,r22
    22d4:	d9800c04 	addi	r6,sp,48
    22d8:	d9c15115 	stw	r7,1348(sp)
    22dc:	00016800 	call	1680 <__sprint_r>
    22e0:	d9c15117 	ldw	r7,1348(sp)
    22e4:	103eb41e 	bne	r2,zero,1db8 <___vfprintf_internal_r+0x6e0>
    22e8:	dd401904 	addi	r21,sp,100
    22ec:	003d6d06 	br	18a4 <___vfprintf_internal_r+0x1cc>
    22f0:	d9014f17 	ldw	r4,1340(sp)
    22f4:	b00b883a 	mov	r5,r22
    22f8:	d9800c04 	addi	r6,sp,48
    22fc:	d9c15115 	stw	r7,1348(sp)
    2300:	00016800 	call	1680 <__sprint_r>
    2304:	d9c15117 	ldw	r7,1348(sp)
    2308:	103eab1e 	bne	r2,zero,1db8 <___vfprintf_internal_r+0x6e0>
    230c:	dc800e17 	ldw	r18,56(sp)
    2310:	dc400d17 	ldw	r17,52(sp)
    2314:	dd401904 	addi	r21,sp,100
    2318:	003e3406 	br	1bec <___vfprintf_internal_r+0x514>
    231c:	d9014f17 	ldw	r4,1340(sp)
    2320:	b00b883a 	mov	r5,r22
    2324:	d9800c04 	addi	r6,sp,48
    2328:	d9c15115 	stw	r7,1348(sp)
    232c:	00016800 	call	1680 <__sprint_r>
    2330:	d9c15117 	ldw	r7,1348(sp)
    2334:	103ea01e 	bne	r2,zero,1db8 <___vfprintf_internal_r+0x6e0>
    2338:	dc800e17 	ldw	r18,56(sp)
    233c:	dc400d17 	ldw	r17,52(sp)
    2340:	dd401904 	addi	r21,sp,100
    2344:	003e1c06 	br	1bb8 <___vfprintf_internal_r+0x4e0>
    2348:	d9014f17 	ldw	r4,1340(sp)
    234c:	b00b883a 	mov	r5,r22
    2350:	d9800c04 	addi	r6,sp,48
    2354:	d9c15115 	stw	r7,1348(sp)
    2358:	00016800 	call	1680 <__sprint_r>
    235c:	d9c15117 	ldw	r7,1348(sp)
    2360:	103e951e 	bne	r2,zero,1db8 <___vfprintf_internal_r+0x6e0>
    2364:	dc800e17 	ldw	r18,56(sp)
    2368:	dc400d17 	ldw	r17,52(sp)
    236c:	dd401904 	addi	r21,sp,100
    2370:	003e0406 	br	1b84 <___vfprintf_internal_r+0x4ac>
    2374:	d9000517 	ldw	r4,20(sp)
    2378:	0102520e 	bge	zero,r4,2cc4 <___vfprintf_internal_r+0x15ec>
    237c:	d9814717 	ldw	r6,1308(sp)
    2380:	21807a16 	blt	r4,r6,256c <___vfprintf_internal_r+0xe94>
    2384:	d8814117 	ldw	r2,1284(sp)
    2388:	91a5883a 	add	r18,r18,r6
    238c:	8c400044 	addi	r17,r17,1
    2390:	a8800015 	stw	r2,0(r21)
    2394:	008001c4 	movi	r2,7
    2398:	a9800115 	stw	r6,4(r21)
    239c:	dc800e15 	stw	r18,56(sp)
    23a0:	dc400d15 	stw	r17,52(sp)
    23a4:	1442f616 	blt	r2,r17,2f80 <___vfprintf_internal_r+0x18a8>
    23a8:	a8c00204 	addi	r3,r21,8
    23ac:	d9414717 	ldw	r5,1308(sp)
    23b0:	2161c83a 	sub	r16,r4,r5
    23b4:	043f9d0e 	bge	zero,r16,222c <___vfprintf_internal_r+0xb54>
    23b8:	00800404 	movi	r2,16
    23bc:	1402130e 	bge	r2,r16,2c0c <___vfprintf_internal_r+0x1534>
    23c0:	dc400d17 	ldw	r17,52(sp)
    23c4:	1027883a 	mov	r19,r2
    23c8:	07000074 	movhi	fp,1
    23cc:	e73a8084 	addi	fp,fp,-5630
    23d0:	050001c4 	movi	r20,7
    23d4:	00000306 	br	23e4 <___vfprintf_internal_r+0xd0c>
    23d8:	18c00204 	addi	r3,r3,8
    23dc:	843ffc04 	addi	r16,r16,-16
    23e0:	9c020d0e 	bge	r19,r16,2c18 <___vfprintf_internal_r+0x1540>
    23e4:	94800404 	addi	r18,r18,16
    23e8:	8c400044 	addi	r17,r17,1
    23ec:	1f000015 	stw	fp,0(r3)
    23f0:	1cc00115 	stw	r19,4(r3)
    23f4:	dc800e15 	stw	r18,56(sp)
    23f8:	dc400d15 	stw	r17,52(sp)
    23fc:	a47ff60e 	bge	r20,r17,23d8 <___vfprintf_internal_r+0xd00>
    2400:	d9014f17 	ldw	r4,1340(sp)
    2404:	b00b883a 	mov	r5,r22
    2408:	d9800c04 	addi	r6,sp,48
    240c:	00016800 	call	1680 <__sprint_r>
    2410:	103e691e 	bne	r2,zero,1db8 <___vfprintf_internal_r+0x6e0>
    2414:	dc800e17 	ldw	r18,56(sp)
    2418:	dc400d17 	ldw	r17,52(sp)
    241c:	d8c01904 	addi	r3,sp,100
    2420:	003fee06 	br	23dc <___vfprintf_internal_r+0xd04>
    2424:	d8814717 	ldw	r2,1308(sp)
    2428:	143fffc4 	addi	r16,r2,-1
    242c:	043e970e 	bge	zero,r16,1e8c <___vfprintf_internal_r+0x7b4>
    2430:	00800404 	movi	r2,16
    2434:	1400180e 	bge	r2,r16,2498 <___vfprintf_internal_r+0xdc0>
    2438:	1029883a 	mov	r20,r2
    243c:	07000074 	movhi	fp,1
    2440:	e73a8084 	addi	fp,fp,-5630
    2444:	054001c4 	movi	r21,7
    2448:	00000306 	br	2458 <___vfprintf_internal_r+0xd80>
    244c:	9cc00204 	addi	r19,r19,8
    2450:	843ffc04 	addi	r16,r16,-16
    2454:	a400120e 	bge	r20,r16,24a0 <___vfprintf_internal_r+0xdc8>
    2458:	94800404 	addi	r18,r18,16
    245c:	8c400044 	addi	r17,r17,1
    2460:	9f000015 	stw	fp,0(r19)
    2464:	9d000115 	stw	r20,4(r19)
    2468:	dc800e15 	stw	r18,56(sp)
    246c:	dc400d15 	stw	r17,52(sp)
    2470:	ac7ff60e 	bge	r21,r17,244c <___vfprintf_internal_r+0xd74>
    2474:	d9014f17 	ldw	r4,1340(sp)
    2478:	b00b883a 	mov	r5,r22
    247c:	d9800c04 	addi	r6,sp,48
    2480:	00016800 	call	1680 <__sprint_r>
    2484:	103e4c1e 	bne	r2,zero,1db8 <___vfprintf_internal_r+0x6e0>
    2488:	dc800e17 	ldw	r18,56(sp)
    248c:	dc400d17 	ldw	r17,52(sp)
    2490:	dcc01904 	addi	r19,sp,100
    2494:	003fee06 	br	2450 <___vfprintf_internal_r+0xd78>
    2498:	07000074 	movhi	fp,1
    249c:	e73a8084 	addi	fp,fp,-5630
    24a0:	9425883a 	add	r18,r18,r16
    24a4:	8c400044 	addi	r17,r17,1
    24a8:	008001c4 	movi	r2,7
    24ac:	9f000015 	stw	fp,0(r19)
    24b0:	9c000115 	stw	r16,4(r19)
    24b4:	dc800e15 	stw	r18,56(sp)
    24b8:	dc400d15 	stw	r17,52(sp)
    24bc:	147e720e 	bge	r2,r17,1e88 <___vfprintf_internal_r+0x7b0>
    24c0:	d9014f17 	ldw	r4,1340(sp)
    24c4:	b00b883a 	mov	r5,r22
    24c8:	d9800c04 	addi	r6,sp,48
    24cc:	00016800 	call	1680 <__sprint_r>
    24d0:	103e391e 	bne	r2,zero,1db8 <___vfprintf_internal_r+0x6e0>
    24d4:	dc800e17 	ldw	r18,56(sp)
    24d8:	dc400d17 	ldw	r17,52(sp)
    24dc:	dcc01904 	addi	r19,sp,100
    24e0:	003e6a06 	br	1e8c <___vfprintf_internal_r+0x7b4>
    24e4:	d9014f17 	ldw	r4,1340(sp)
    24e8:	b00b883a 	mov	r5,r22
    24ec:	d9800c04 	addi	r6,sp,48
    24f0:	d9c15115 	stw	r7,1348(sp)
    24f4:	00016800 	call	1680 <__sprint_r>
    24f8:	d9c15117 	ldw	r7,1348(sp)
    24fc:	103e2e1e 	bne	r2,zero,1db8 <___vfprintf_internal_r+0x6e0>
    2500:	dc800e17 	ldw	r18,56(sp)
    2504:	dc400d17 	ldw	r17,52(sp)
    2508:	dd401904 	addi	r21,sp,100
    250c:	003dba06 	br	1bf8 <___vfprintf_internal_r+0x520>
    2510:	d9014f17 	ldw	r4,1340(sp)
    2514:	b00b883a 	mov	r5,r22
    2518:	d9800c04 	addi	r6,sp,48
    251c:	00016800 	call	1680 <__sprint_r>
    2520:	103e251e 	bne	r2,zero,1db8 <___vfprintf_internal_r+0x6e0>
    2524:	dc800e17 	ldw	r18,56(sp)
    2528:	dc400d17 	ldw	r17,52(sp)
    252c:	dcc01904 	addi	r19,sp,100
    2530:	003e4206 	br	1e3c <___vfprintf_internal_r+0x764>
    2534:	d9014f17 	ldw	r4,1340(sp)
    2538:	b00b883a 	mov	r5,r22
    253c:	d9800c04 	addi	r6,sp,48
    2540:	00016800 	call	1680 <__sprint_r>
    2544:	103e1c1e 	bne	r2,zero,1db8 <___vfprintf_internal_r+0x6e0>
    2548:	dc800e17 	ldw	r18,56(sp)
    254c:	dc400d17 	ldw	r17,52(sp)
    2550:	d8c01904 	addi	r3,sp,100
    2554:	003e2e06 	br	1e10 <___vfprintf_internal_r+0x738>
    2558:	d9414c17 	ldw	r5,1328(sp)
    255c:	2880004c 	andi	r2,r5,1
    2560:	1005003a 	cmpeq	r2,r2,zero
    2564:	103dda1e 	bne	r2,zero,1cd0 <___vfprintf_internal_r+0x5f8>
    2568:	003e9f06 	br	1fe8 <___vfprintf_internal_r+0x910>
    256c:	d8c14117 	ldw	r3,1284(sp)
    2570:	9125883a 	add	r18,r18,r4
    2574:	8c400044 	addi	r17,r17,1
    2578:	008001c4 	movi	r2,7
    257c:	a8c00015 	stw	r3,0(r21)
    2580:	a9000115 	stw	r4,4(r21)
    2584:	dc800e15 	stw	r18,56(sp)
    2588:	dc400d15 	stw	r17,52(sp)
    258c:	14426616 	blt	r2,r17,2f28 <___vfprintf_internal_r+0x1850>
    2590:	a8c00204 	addi	r3,r21,8
    2594:	d9414917 	ldw	r5,1316(sp)
    2598:	00800044 	movi	r2,1
    259c:	94800044 	addi	r18,r18,1
    25a0:	8c400044 	addi	r17,r17,1
    25a4:	18800115 	stw	r2,4(r3)
    25a8:	008001c4 	movi	r2,7
    25ac:	19400015 	stw	r5,0(r3)
    25b0:	dc800e15 	stw	r18,56(sp)
    25b4:	dc400d15 	stw	r17,52(sp)
    25b8:	2021883a 	mov	r16,r4
    25bc:	14425016 	blt	r2,r17,2f00 <___vfprintf_internal_r+0x1828>
    25c0:	19400204 	addi	r5,r3,8
    25c4:	d9814717 	ldw	r6,1308(sp)
    25c8:	8c400044 	addi	r17,r17,1
    25cc:	dc400d15 	stw	r17,52(sp)
    25d0:	3107c83a 	sub	r3,r6,r4
    25d4:	d9014117 	ldw	r4,1284(sp)
    25d8:	90e5883a 	add	r18,r18,r3
    25dc:	28c00115 	stw	r3,4(r5)
    25e0:	8105883a 	add	r2,r16,r4
    25e4:	28800015 	stw	r2,0(r5)
    25e8:	008001c4 	movi	r2,7
    25ec:	dc800e15 	stw	r18,56(sp)
    25f0:	147f1d16 	blt	r2,r17,2268 <___vfprintf_internal_r+0xb90>
    25f4:	28c00204 	addi	r3,r5,8
    25f8:	003db506 	br	1cd0 <___vfprintf_internal_r+0x5f8>
    25fc:	3c000017 	ldw	r16,0(r7)
    2600:	3c400117 	ldw	r17,4(r7)
    2604:	39800204 	addi	r6,r7,8
    2608:	01000044 	movi	r4,1
    260c:	d9814015 	stw	r6,1280(sp)
    2610:	d8000405 	stb	zero,16(sp)
    2614:	003ebe06 	br	2110 <___vfprintf_internal_r+0xa38>
    2618:	3c000017 	ldw	r16,0(r7)
    261c:	3c400117 	ldw	r17,4(r7)
    2620:	38800204 	addi	r2,r7,8
    2624:	d8814015 	stw	r2,1280(sp)
    2628:	003eb706 	br	2108 <___vfprintf_internal_r+0xa30>
    262c:	3c000017 	ldw	r16,0(r7)
    2630:	3c400117 	ldw	r17,4(r7)
    2634:	39000204 	addi	r4,r7,8
    2638:	d9014015 	stw	r4,1280(sp)
    263c:	0009883a 	mov	r4,zero
    2640:	d8000405 	stb	zero,16(sp)
    2644:	003eb206 	br	2110 <___vfprintf_internal_r+0xa38>
    2648:	38c00017 	ldw	r3,0(r7)
    264c:	39c00104 	addi	r7,r7,4
    2650:	d8c14a15 	stw	r3,1320(sp)
    2654:	1800d10e 	bge	r3,zero,299c <___vfprintf_internal_r+0x12c4>
    2658:	00c7c83a 	sub	r3,zero,r3
    265c:	d8c14a15 	stw	r3,1320(sp)
    2660:	d9014c17 	ldw	r4,1328(sp)
    2664:	b8c00007 	ldb	r3,0(r23)
    2668:	21000114 	ori	r4,r4,4
    266c:	d9014c15 	stw	r4,1328(sp)
    2670:	003c9806 	br	18d4 <___vfprintf_internal_r+0x1fc>
    2674:	d9814c17 	ldw	r6,1328(sp)
    2678:	3080080c 	andi	r2,r6,32
    267c:	1001f026 	beq	r2,zero,2e40 <___vfprintf_internal_r+0x1768>
    2680:	d9014b17 	ldw	r4,1324(sp)
    2684:	38800017 	ldw	r2,0(r7)
    2688:	39c00104 	addi	r7,r7,4
    268c:	d9c14015 	stw	r7,1280(sp)
    2690:	2007d7fa 	srai	r3,r4,31
    2694:	d9c14017 	ldw	r7,1280(sp)
    2698:	11000015 	stw	r4,0(r2)
    269c:	10c00115 	stw	r3,4(r2)
    26a0:	003c6906 	br	1848 <___vfprintf_internal_r+0x170>
    26a4:	b8c00007 	ldb	r3,0(r23)
    26a8:	00801b04 	movi	r2,108
    26ac:	18824f26 	beq	r3,r2,2fec <___vfprintf_internal_r+0x1914>
    26b0:	d9414c17 	ldw	r5,1328(sp)
    26b4:	29400414 	ori	r5,r5,16
    26b8:	d9414c15 	stw	r5,1328(sp)
    26bc:	003c8506 	br	18d4 <___vfprintf_internal_r+0x1fc>
    26c0:	d9814c17 	ldw	r6,1328(sp)
    26c4:	b8c00007 	ldb	r3,0(r23)
    26c8:	31800814 	ori	r6,r6,32
    26cc:	d9814c15 	stw	r6,1328(sp)
    26d0:	003c8006 	br	18d4 <___vfprintf_internal_r+0x1fc>
    26d4:	d8814c17 	ldw	r2,1328(sp)
    26d8:	3c000017 	ldw	r16,0(r7)
    26dc:	00c01e04 	movi	r3,120
    26e0:	10800094 	ori	r2,r2,2
    26e4:	d8814c15 	stw	r2,1328(sp)
    26e8:	39c00104 	addi	r7,r7,4
    26ec:	01400074 	movhi	r5,1
    26f0:	297a6904 	addi	r5,r5,-5724
    26f4:	00800c04 	movi	r2,48
    26f8:	0023883a 	mov	r17,zero
    26fc:	01000084 	movi	r4,2
    2700:	d9c14015 	stw	r7,1280(sp)
    2704:	d8c14d15 	stw	r3,1332(sp)
    2708:	d9414415 	stw	r5,1296(sp)
    270c:	d8800445 	stb	r2,17(sp)
    2710:	d8c00485 	stb	r3,18(sp)
    2714:	d8000405 	stb	zero,16(sp)
    2718:	003e7d06 	br	2110 <___vfprintf_internal_r+0xa38>
    271c:	d8814c17 	ldw	r2,1328(sp)
    2720:	b8c00007 	ldb	r3,0(r23)
    2724:	10801014 	ori	r2,r2,64
    2728:	d8814c15 	stw	r2,1328(sp)
    272c:	003c6906 	br	18d4 <___vfprintf_internal_r+0x1fc>
    2730:	d9414c17 	ldw	r5,1328(sp)
    2734:	2880020c 	andi	r2,r5,8
    2738:	1001df26 	beq	r2,zero,2eb8 <___vfprintf_internal_r+0x17e0>
    273c:	39800017 	ldw	r6,0(r7)
    2740:	38800204 	addi	r2,r7,8
    2744:	d8814015 	stw	r2,1280(sp)
    2748:	d9814215 	stw	r6,1288(sp)
    274c:	39c00117 	ldw	r7,4(r7)
    2750:	d9c14315 	stw	r7,1292(sp)
    2754:	d9014217 	ldw	r4,1288(sp)
    2758:	d9414317 	ldw	r5,1292(sp)
    275c:	00080780 	call	8078 <__isinfd>
    2760:	10021726 	beq	r2,zero,2fc0 <___vfprintf_internal_r+0x18e8>
    2764:	d9014217 	ldw	r4,1288(sp)
    2768:	d9414317 	ldw	r5,1292(sp)
    276c:	000d883a 	mov	r6,zero
    2770:	000f883a 	mov	r7,zero
    2774:	000a0c00 	call	a0c0 <__ltdf2>
    2778:	1002ca16 	blt	r2,zero,32a4 <___vfprintf_internal_r+0x1bcc>
    277c:	d9414d17 	ldw	r5,1332(sp)
    2780:	008011c4 	movi	r2,71
    2784:	11420a16 	blt	r2,r5,2fb0 <___vfprintf_internal_r+0x18d8>
    2788:	01800074 	movhi	r6,1
    278c:	31ba6e04 	addi	r6,r6,-5704
    2790:	d9814115 	stw	r6,1284(sp)
    2794:	d9014c17 	ldw	r4,1328(sp)
    2798:	00c000c4 	movi	r3,3
    279c:	00bfdfc4 	movi	r2,-129
    27a0:	2088703a 	and	r4,r4,r2
    27a4:	180f883a 	mov	r7,r3
    27a8:	d8c14515 	stw	r3,1300(sp)
    27ac:	d9014c15 	stw	r4,1328(sp)
    27b0:	d8014615 	stw	zero,1304(sp)
    27b4:	003e6a06 	br	2160 <___vfprintf_internal_r+0xa88>
    27b8:	38800017 	ldw	r2,0(r7)
    27bc:	00c00044 	movi	r3,1
    27c0:	39c00104 	addi	r7,r7,4
    27c4:	d9c14015 	stw	r7,1280(sp)
    27c8:	d9000f04 	addi	r4,sp,60
    27cc:	180f883a 	mov	r7,r3
    27d0:	d8c14515 	stw	r3,1300(sp)
    27d4:	d9014115 	stw	r4,1284(sp)
    27d8:	d8800f05 	stb	r2,60(sp)
    27dc:	d8000405 	stb	zero,16(sp)
    27e0:	003cac06 	br	1a94 <___vfprintf_internal_r+0x3bc>
    27e4:	01400074 	movhi	r5,1
    27e8:	297a7404 	addi	r5,r5,-5680
    27ec:	d9414415 	stw	r5,1296(sp)
    27f0:	d9814c17 	ldw	r6,1328(sp)
    27f4:	3080080c 	andi	r2,r6,32
    27f8:	1000f926 	beq	r2,zero,2be0 <___vfprintf_internal_r+0x1508>
    27fc:	3c000017 	ldw	r16,0(r7)
    2800:	3c400117 	ldw	r17,4(r7)
    2804:	38800204 	addi	r2,r7,8
    2808:	d8814015 	stw	r2,1280(sp)
    280c:	d9414c17 	ldw	r5,1328(sp)
    2810:	2880004c 	andi	r2,r5,1
    2814:	1005003a 	cmpeq	r2,r2,zero
    2818:	1000b31e 	bne	r2,zero,2ae8 <___vfprintf_internal_r+0x1410>
    281c:	8444b03a 	or	r2,r16,r17
    2820:	1000b126 	beq	r2,zero,2ae8 <___vfprintf_internal_r+0x1410>
    2824:	d9814d17 	ldw	r6,1332(sp)
    2828:	29400094 	ori	r5,r5,2
    282c:	00800c04 	movi	r2,48
    2830:	01000084 	movi	r4,2
    2834:	d9414c15 	stw	r5,1328(sp)
    2838:	d8800445 	stb	r2,17(sp)
    283c:	d9800485 	stb	r6,18(sp)
    2840:	d8000405 	stb	zero,16(sp)
    2844:	003e3206 	br	2110 <___vfprintf_internal_r+0xa38>
    2848:	01800074 	movhi	r6,1
    284c:	31ba6904 	addi	r6,r6,-5724
    2850:	d9814415 	stw	r6,1296(sp)
    2854:	003fe606 	br	27f0 <___vfprintf_internal_r+0x1118>
    2858:	00800ac4 	movi	r2,43
    285c:	d8800405 	stb	r2,16(sp)
    2860:	b8c00007 	ldb	r3,0(r23)
    2864:	003c1b06 	br	18d4 <___vfprintf_internal_r+0x1fc>
    2868:	d8814c17 	ldw	r2,1328(sp)
    286c:	b8c00007 	ldb	r3,0(r23)
    2870:	10800054 	ori	r2,r2,1
    2874:	d8814c15 	stw	r2,1328(sp)
    2878:	003c1606 	br	18d4 <___vfprintf_internal_r+0x1fc>
    287c:	d8800407 	ldb	r2,16(sp)
    2880:	1000461e 	bne	r2,zero,299c <___vfprintf_internal_r+0x12c4>
    2884:	00800804 	movi	r2,32
    2888:	d8800405 	stb	r2,16(sp)
    288c:	b8c00007 	ldb	r3,0(r23)
    2890:	003c1006 	br	18d4 <___vfprintf_internal_r+0x1fc>
    2894:	d9814c17 	ldw	r6,1328(sp)
    2898:	b8c00007 	ldb	r3,0(r23)
    289c:	31800214 	ori	r6,r6,8
    28a0:	d9814c15 	stw	r6,1328(sp)
    28a4:	003c0b06 	br	18d4 <___vfprintf_internal_r+0x1fc>
    28a8:	0007883a 	mov	r3,zero
    28ac:	01000244 	movi	r4,9
    28b0:	188002a4 	muli	r2,r3,10
    28b4:	b8c00007 	ldb	r3,0(r23)
    28b8:	d9814d17 	ldw	r6,1332(sp)
    28bc:	bdc00044 	addi	r23,r23,1
    28c0:	d8c14d15 	stw	r3,1332(sp)
    28c4:	d9414d17 	ldw	r5,1332(sp)
    28c8:	3085883a 	add	r2,r6,r2
    28cc:	10fff404 	addi	r3,r2,-48
    28d0:	28bff404 	addi	r2,r5,-48
    28d4:	20bff62e 	bgeu	r4,r2,28b0 <___vfprintf_internal_r+0x11d8>
    28d8:	d8c14a15 	stw	r3,1320(sp)
    28dc:	003bff06 	br	18dc <___vfprintf_internal_r+0x204>
    28e0:	d9414c17 	ldw	r5,1328(sp)
    28e4:	b8c00007 	ldb	r3,0(r23)
    28e8:	29402014 	ori	r5,r5,128
    28ec:	d9414c15 	stw	r5,1328(sp)
    28f0:	003bf806 	br	18d4 <___vfprintf_internal_r+0x1fc>
    28f4:	b8c00007 	ldb	r3,0(r23)
    28f8:	00800a84 	movi	r2,42
    28fc:	bdc00044 	addi	r23,r23,1
    2900:	18831526 	beq	r3,r2,3558 <___vfprintf_internal_r+0x1e80>
    2904:	d8c14d15 	stw	r3,1332(sp)
    2908:	18bff404 	addi	r2,r3,-48
    290c:	00c00244 	movi	r3,9
    2910:	18827836 	bltu	r3,r2,32f4 <___vfprintf_internal_r+0x1c1c>
    2914:	000d883a 	mov	r6,zero
    2918:	308002a4 	muli	r2,r6,10
    291c:	b9800007 	ldb	r6,0(r23)
    2920:	d9414d17 	ldw	r5,1332(sp)
    2924:	bdc00044 	addi	r23,r23,1
    2928:	d9814d15 	stw	r6,1332(sp)
    292c:	d9014d17 	ldw	r4,1332(sp)
    2930:	1145883a 	add	r2,r2,r5
    2934:	11bff404 	addi	r6,r2,-48
    2938:	20bff404 	addi	r2,r4,-48
    293c:	18bff62e 	bgeu	r3,r2,2918 <___vfprintf_internal_r+0x1240>
    2940:	3027883a 	mov	r19,r6
    2944:	303be50e 	bge	r6,zero,18dc <___vfprintf_internal_r+0x204>
    2948:	04ffffc4 	movi	r19,-1
    294c:	003be306 	br	18dc <___vfprintf_internal_r+0x204>
    2950:	d8000405 	stb	zero,16(sp)
    2954:	39800017 	ldw	r6,0(r7)
    2958:	39c00104 	addi	r7,r7,4
    295c:	d9c14015 	stw	r7,1280(sp)
    2960:	d9814115 	stw	r6,1284(sp)
    2964:	3001c926 	beq	r6,zero,308c <___vfprintf_internal_r+0x19b4>
    2968:	98000e16 	blt	r19,zero,29a4 <___vfprintf_internal_r+0x12cc>
    296c:	d9014117 	ldw	r4,1284(sp)
    2970:	000b883a 	mov	r5,zero
    2974:	980d883a 	mov	r6,r19
    2978:	00067940 	call	6794 <memchr>
    297c:	10025926 	beq	r2,zero,32e4 <___vfprintf_internal_r+0x1c0c>
    2980:	d8c14117 	ldw	r3,1284(sp)
    2984:	10cfc83a 	sub	r7,r2,r3
    2988:	99c19e16 	blt	r19,r7,3004 <___vfprintf_internal_r+0x192c>
    298c:	d9c14515 	stw	r7,1300(sp)
    2990:	38000916 	blt	r7,zero,29b8 <___vfprintf_internal_r+0x12e0>
    2994:	d8014615 	stw	zero,1304(sp)
    2998:	003df106 	br	2160 <___vfprintf_internal_r+0xa88>
    299c:	b8c00007 	ldb	r3,0(r23)
    29a0:	003bcc06 	br	18d4 <___vfprintf_internal_r+0x1fc>
    29a4:	d9014117 	ldw	r4,1284(sp)
    29a8:	000160c0 	call	160c <strlen>
    29ac:	d8814515 	stw	r2,1300(sp)
    29b0:	100f883a 	mov	r7,r2
    29b4:	103ff70e 	bge	r2,zero,2994 <___vfprintf_internal_r+0x12bc>
    29b8:	d8014515 	stw	zero,1300(sp)
    29bc:	d8014615 	stw	zero,1304(sp)
    29c0:	003de706 	br	2160 <___vfprintf_internal_r+0xa88>
    29c4:	20c03fcc 	andi	r3,r4,255
    29c8:	00800044 	movi	r2,1
    29cc:	18802d26 	beq	r3,r2,2a84 <___vfprintf_internal_r+0x13ac>
    29d0:	18800e36 	bltu	r3,r2,2a0c <___vfprintf_internal_r+0x1334>
    29d4:	00800084 	movi	r2,2
    29d8:	1880fa26 	beq	r3,r2,2dc4 <___vfprintf_internal_r+0x16ec>
    29dc:	01000074 	movhi	r4,1
    29e0:	213a7904 	addi	r4,r4,-5660
    29e4:	000160c0 	call	160c <strlen>
    29e8:	100f883a 	mov	r7,r2
    29ec:	dcc14515 	stw	r19,1300(sp)
    29f0:	9880010e 	bge	r19,r2,29f8 <___vfprintf_internal_r+0x1320>
    29f4:	d8814515 	stw	r2,1300(sp)
    29f8:	00800074 	movhi	r2,1
    29fc:	10ba7904 	addi	r2,r2,-5660
    2a00:	dcc14615 	stw	r19,1304(sp)
    2a04:	d8814115 	stw	r2,1284(sp)
    2a08:	003dd506 	br	2160 <___vfprintf_internal_r+0xa88>
    2a0c:	d9401904 	addi	r5,sp,100
    2a10:	dd000f04 	addi	r20,sp,60
    2a14:	d9414115 	stw	r5,1284(sp)
    2a18:	880a977a 	slli	r5,r17,29
    2a1c:	d9814117 	ldw	r6,1284(sp)
    2a20:	8004d0fa 	srli	r2,r16,3
    2a24:	8806d0fa 	srli	r3,r17,3
    2a28:	810001cc 	andi	r4,r16,7
    2a2c:	2884b03a 	or	r2,r5,r2
    2a30:	31bfffc4 	addi	r6,r6,-1
    2a34:	21000c04 	addi	r4,r4,48
    2a38:	d9814115 	stw	r6,1284(sp)
    2a3c:	10cab03a 	or	r5,r2,r3
    2a40:	31000005 	stb	r4,0(r6)
    2a44:	1021883a 	mov	r16,r2
    2a48:	1823883a 	mov	r17,r3
    2a4c:	283ff21e 	bne	r5,zero,2a18 <___vfprintf_internal_r+0x1340>
    2a50:	d8c14c17 	ldw	r3,1328(sp)
    2a54:	1880004c 	andi	r2,r3,1
    2a58:	1005003a 	cmpeq	r2,r2,zero
    2a5c:	103db91e 	bne	r2,zero,2144 <___vfprintf_internal_r+0xa6c>
    2a60:	20803fcc 	andi	r2,r4,255
    2a64:	1080201c 	xori	r2,r2,128
    2a68:	10bfe004 	addi	r2,r2,-128
    2a6c:	00c00c04 	movi	r3,48
    2a70:	10fdb426 	beq	r2,r3,2144 <___vfprintf_internal_r+0xa6c>
    2a74:	31bfffc4 	addi	r6,r6,-1
    2a78:	d9814115 	stw	r6,1284(sp)
    2a7c:	30c00005 	stb	r3,0(r6)
    2a80:	003db006 	br	2144 <___vfprintf_internal_r+0xa6c>
    2a84:	88800068 	cmpgeui	r2,r17,1
    2a88:	10002c1e 	bne	r2,zero,2b3c <___vfprintf_internal_r+0x1464>
    2a8c:	8800021e 	bne	r17,zero,2a98 <___vfprintf_internal_r+0x13c0>
    2a90:	00800244 	movi	r2,9
    2a94:	14002936 	bltu	r2,r16,2b3c <___vfprintf_internal_r+0x1464>
    2a98:	d90018c4 	addi	r4,sp,99
    2a9c:	dd000f04 	addi	r20,sp,60
    2aa0:	d9014115 	stw	r4,1284(sp)
    2aa4:	d9014117 	ldw	r4,1284(sp)
    2aa8:	80800c04 	addi	r2,r16,48
    2aac:	20800005 	stb	r2,0(r4)
    2ab0:	003da406 	br	2144 <___vfprintf_internal_r+0xa6c>
    2ab4:	dc400d17 	ldw	r17,52(sp)
    2ab8:	07000074 	movhi	fp,1
    2abc:	e73a8084 	addi	fp,fp,-5630
    2ac0:	9425883a 	add	r18,r18,r16
    2ac4:	8c400044 	addi	r17,r17,1
    2ac8:	008001c4 	movi	r2,7
    2acc:	1f000015 	stw	fp,0(r3)
    2ad0:	1c000115 	stw	r16,4(r3)
    2ad4:	dc800e15 	stw	r18,56(sp)
    2ad8:	dc400d15 	stw	r17,52(sp)
    2adc:	147de216 	blt	r2,r17,2268 <___vfprintf_internal_r+0xb90>
    2ae0:	18c00204 	addi	r3,r3,8
    2ae4:	003c7a06 	br	1cd0 <___vfprintf_internal_r+0x5f8>
    2ae8:	01000084 	movi	r4,2
    2aec:	d8000405 	stb	zero,16(sp)
    2af0:	003d8706 	br	2110 <___vfprintf_internal_r+0xa38>
    2af4:	d9814c17 	ldw	r6,1328(sp)
    2af8:	30c4703a 	and	r2,r6,r3
    2afc:	1005003a 	cmpeq	r2,r2,zero
    2b00:	103cb926 	beq	r2,zero,1de8 <___vfprintf_internal_r+0x710>
    2b04:	d9014117 	ldw	r4,1284(sp)
    2b08:	94800044 	addi	r18,r18,1
    2b0c:	8c400044 	addi	r17,r17,1
    2b10:	008001c4 	movi	r2,7
    2b14:	a9000015 	stw	r4,0(r21)
    2b18:	a8c00115 	stw	r3,4(r21)
    2b1c:	dc800e15 	stw	r18,56(sp)
    2b20:	dc400d15 	stw	r17,52(sp)
    2b24:	147e6616 	blt	r2,r17,24c0 <___vfprintf_internal_r+0xde8>
    2b28:	acc00204 	addi	r19,r21,8
    2b2c:	003cd706 	br	1e8c <___vfprintf_internal_r+0x7b4>
    2b30:	07000074 	movhi	fp,1
    2b34:	e73a8084 	addi	fp,fp,-5630
    2b38:	003c4f06 	br	1c78 <___vfprintf_internal_r+0x5a0>
    2b3c:	dd000f04 	addi	r20,sp,60
    2b40:	dc801904 	addi	r18,sp,100
    2b44:	8009883a 	mov	r4,r16
    2b48:	880b883a 	mov	r5,r17
    2b4c:	01800284 	movi	r6,10
    2b50:	000f883a 	mov	r7,zero
    2b54:	0008dd00 	call	8dd0 <__umoddi3>
    2b58:	12000c04 	addi	r8,r2,48
    2b5c:	94bfffc4 	addi	r18,r18,-1
    2b60:	8009883a 	mov	r4,r16
    2b64:	880b883a 	mov	r5,r17
    2b68:	01800284 	movi	r6,10
    2b6c:	000f883a 	mov	r7,zero
    2b70:	92000005 	stb	r8,0(r18)
    2b74:	00087f40 	call	87f4 <__udivdi3>
    2b78:	1009883a 	mov	r4,r2
    2b7c:	1021883a 	mov	r16,r2
    2b80:	18800068 	cmpgeui	r2,r3,1
    2b84:	1823883a 	mov	r17,r3
    2b88:	103fee1e 	bne	r2,zero,2b44 <___vfprintf_internal_r+0x146c>
    2b8c:	1800021e 	bne	r3,zero,2b98 <___vfprintf_internal_r+0x14c0>
    2b90:	00800244 	movi	r2,9
    2b94:	113feb36 	bltu	r2,r4,2b44 <___vfprintf_internal_r+0x146c>
    2b98:	94bfffc4 	addi	r18,r18,-1
    2b9c:	dc814115 	stw	r18,1284(sp)
    2ba0:	003fc006 	br	2aa4 <___vfprintf_internal_r+0x13cc>
    2ba4:	d9014c17 	ldw	r4,1328(sp)
    2ba8:	2080004c 	andi	r2,r4,1
    2bac:	10009a1e 	bne	r2,zero,2e18 <___vfprintf_internal_r+0x1740>
    2bb0:	d9401904 	addi	r5,sp,100
    2bb4:	dd000f04 	addi	r20,sp,60
    2bb8:	d9414115 	stw	r5,1284(sp)
    2bbc:	003d6106 	br	2144 <___vfprintf_internal_r+0xa6c>
    2bc0:	d9014f17 	ldw	r4,1340(sp)
    2bc4:	b00b883a 	mov	r5,r22
    2bc8:	d9800c04 	addi	r6,sp,48
    2bcc:	00016800 	call	1680 <__sprint_r>
    2bd0:	103c791e 	bne	r2,zero,1db8 <___vfprintf_internal_r+0x6e0>
    2bd4:	dc800e17 	ldw	r18,56(sp)
    2bd8:	d8c01904 	addi	r3,sp,100
    2bdc:	003cff06 	br	1fdc <___vfprintf_internal_r+0x904>
    2be0:	d8c14c17 	ldw	r3,1328(sp)
    2be4:	1880040c 	andi	r2,r3,16
    2be8:	1000711e 	bne	r2,zero,2db0 <___vfprintf_internal_r+0x16d8>
    2bec:	d9014c17 	ldw	r4,1328(sp)
    2bf0:	2080100c 	andi	r2,r4,64
    2bf4:	10006e26 	beq	r2,zero,2db0 <___vfprintf_internal_r+0x16d8>
    2bf8:	3c00000b 	ldhu	r16,0(r7)
    2bfc:	0023883a 	mov	r17,zero
    2c00:	39c00104 	addi	r7,r7,4
    2c04:	d9c14015 	stw	r7,1280(sp)
    2c08:	003f0006 	br	280c <___vfprintf_internal_r+0x1134>
    2c0c:	dc400d17 	ldw	r17,52(sp)
    2c10:	07000074 	movhi	fp,1
    2c14:	e73a8084 	addi	fp,fp,-5630
    2c18:	9425883a 	add	r18,r18,r16
    2c1c:	8c400044 	addi	r17,r17,1
    2c20:	008001c4 	movi	r2,7
    2c24:	1f000015 	stw	fp,0(r3)
    2c28:	1c000115 	stw	r16,4(r3)
    2c2c:	dc800e15 	stw	r18,56(sp)
    2c30:	dc400d15 	stw	r17,52(sp)
    2c34:	147d7616 	blt	r2,r17,2210 <___vfprintf_internal_r+0xb38>
    2c38:	18c00204 	addi	r3,r3,8
    2c3c:	003d7b06 	br	222c <___vfprintf_internal_r+0xb54>
    2c40:	dc800e17 	ldw	r18,56(sp)
    2c44:	dc400d17 	ldw	r17,52(sp)
    2c48:	07000074 	movhi	fp,1
    2c4c:	e73a8484 	addi	fp,fp,-5614
    2c50:	003bc006 	br	1b54 <___vfprintf_internal_r+0x47c>
    2c54:	d9014f17 	ldw	r4,1340(sp)
    2c58:	b00b883a 	mov	r5,r22
    2c5c:	d9800c04 	addi	r6,sp,48
    2c60:	00016800 	call	1680 <__sprint_r>
    2c64:	103c541e 	bne	r2,zero,1db8 <___vfprintf_internal_r+0x6e0>
    2c68:	dc800e17 	ldw	r18,56(sp)
    2c6c:	d8c01904 	addi	r3,sp,100
    2c70:	003ce906 	br	2018 <___vfprintf_internal_r+0x940>
    2c74:	3c000017 	ldw	r16,0(r7)
    2c78:	0009883a 	mov	r4,zero
    2c7c:	39c00104 	addi	r7,r7,4
    2c80:	0023883a 	mov	r17,zero
    2c84:	d9c14015 	stw	r7,1280(sp)
    2c88:	d8000405 	stb	zero,16(sp)
    2c8c:	003d2006 	br	2110 <___vfprintf_internal_r+0xa38>
    2c90:	38800017 	ldw	r2,0(r7)
    2c94:	39c00104 	addi	r7,r7,4
    2c98:	d9c14015 	stw	r7,1280(sp)
    2c9c:	1023d7fa 	srai	r17,r2,31
    2ca0:	1021883a 	mov	r16,r2
    2ca4:	003d1806 	br	2108 <___vfprintf_internal_r+0xa30>
    2ca8:	3c000017 	ldw	r16,0(r7)
    2cac:	01000044 	movi	r4,1
    2cb0:	39c00104 	addi	r7,r7,4
    2cb4:	0023883a 	mov	r17,zero
    2cb8:	d9c14015 	stw	r7,1280(sp)
    2cbc:	d8000405 	stb	zero,16(sp)
    2cc0:	003d1306 	br	2110 <___vfprintf_internal_r+0xa38>
    2cc4:	00800074 	movhi	r2,1
    2cc8:	10ba8004 	addi	r2,r2,-5632
    2ccc:	94800044 	addi	r18,r18,1
    2cd0:	8c400044 	addi	r17,r17,1
    2cd4:	a8800015 	stw	r2,0(r21)
    2cd8:	00c00044 	movi	r3,1
    2cdc:	008001c4 	movi	r2,7
    2ce0:	a8c00115 	stw	r3,4(r21)
    2ce4:	dc800e15 	stw	r18,56(sp)
    2ce8:	dc400d15 	stw	r17,52(sp)
    2cec:	1440ca16 	blt	r2,r17,3018 <___vfprintf_internal_r+0x1940>
    2cf0:	a8c00204 	addi	r3,r21,8
    2cf4:	2000061e 	bne	r4,zero,2d10 <___vfprintf_internal_r+0x1638>
    2cf8:	d9414717 	ldw	r5,1308(sp)
    2cfc:	2800041e 	bne	r5,zero,2d10 <___vfprintf_internal_r+0x1638>
    2d00:	d9814c17 	ldw	r6,1328(sp)
    2d04:	3080004c 	andi	r2,r6,1
    2d08:	1005003a 	cmpeq	r2,r2,zero
    2d0c:	103bf01e 	bne	r2,zero,1cd0 <___vfprintf_internal_r+0x5f8>
    2d10:	00800044 	movi	r2,1
    2d14:	dc400d17 	ldw	r17,52(sp)
    2d18:	18800115 	stw	r2,4(r3)
    2d1c:	d8814917 	ldw	r2,1316(sp)
    2d20:	94800044 	addi	r18,r18,1
    2d24:	8c400044 	addi	r17,r17,1
    2d28:	18800015 	stw	r2,0(r3)
    2d2c:	008001c4 	movi	r2,7
    2d30:	dc800e15 	stw	r18,56(sp)
    2d34:	dc400d15 	stw	r17,52(sp)
    2d38:	1440ca16 	blt	r2,r17,3064 <___vfprintf_internal_r+0x198c>
    2d3c:	18c00204 	addi	r3,r3,8
    2d40:	0121c83a 	sub	r16,zero,r4
    2d44:	0400500e 	bge	zero,r16,2e88 <___vfprintf_internal_r+0x17b0>
    2d48:	00800404 	movi	r2,16
    2d4c:	1400800e 	bge	r2,r16,2f50 <___vfprintf_internal_r+0x1878>
    2d50:	1027883a 	mov	r19,r2
    2d54:	07000074 	movhi	fp,1
    2d58:	e73a8084 	addi	fp,fp,-5630
    2d5c:	050001c4 	movi	r20,7
    2d60:	00000306 	br	2d70 <___vfprintf_internal_r+0x1698>
    2d64:	18c00204 	addi	r3,r3,8
    2d68:	843ffc04 	addi	r16,r16,-16
    2d6c:	9c007a0e 	bge	r19,r16,2f58 <___vfprintf_internal_r+0x1880>
    2d70:	94800404 	addi	r18,r18,16
    2d74:	8c400044 	addi	r17,r17,1
    2d78:	1f000015 	stw	fp,0(r3)
    2d7c:	1cc00115 	stw	r19,4(r3)
    2d80:	dc800e15 	stw	r18,56(sp)
    2d84:	dc400d15 	stw	r17,52(sp)
    2d88:	a47ff60e 	bge	r20,r17,2d64 <___vfprintf_internal_r+0x168c>
    2d8c:	d9014f17 	ldw	r4,1340(sp)
    2d90:	b00b883a 	mov	r5,r22
    2d94:	d9800c04 	addi	r6,sp,48
    2d98:	00016800 	call	1680 <__sprint_r>
    2d9c:	103c061e 	bne	r2,zero,1db8 <___vfprintf_internal_r+0x6e0>
    2da0:	dc800e17 	ldw	r18,56(sp)
    2da4:	dc400d17 	ldw	r17,52(sp)
    2da8:	d8c01904 	addi	r3,sp,100
    2dac:	003fee06 	br	2d68 <___vfprintf_internal_r+0x1690>
    2db0:	3c000017 	ldw	r16,0(r7)
    2db4:	0023883a 	mov	r17,zero
    2db8:	39c00104 	addi	r7,r7,4
    2dbc:	d9c14015 	stw	r7,1280(sp)
    2dc0:	003e9206 	br	280c <___vfprintf_internal_r+0x1134>
    2dc4:	d9401904 	addi	r5,sp,100
    2dc8:	dd000f04 	addi	r20,sp,60
    2dcc:	d9414115 	stw	r5,1284(sp)
    2dd0:	d9814417 	ldw	r6,1296(sp)
    2dd4:	880a973a 	slli	r5,r17,28
    2dd8:	8004d13a 	srli	r2,r16,4
    2ddc:	810003cc 	andi	r4,r16,15
    2de0:	3109883a 	add	r4,r6,r4
    2de4:	2884b03a 	or	r2,r5,r2
    2de8:	21400003 	ldbu	r5,0(r4)
    2dec:	d9014117 	ldw	r4,1284(sp)
    2df0:	8806d13a 	srli	r3,r17,4
    2df4:	1021883a 	mov	r16,r2
    2df8:	213fffc4 	addi	r4,r4,-1
    2dfc:	d9014115 	stw	r4,1284(sp)
    2e00:	d9814117 	ldw	r6,1284(sp)
    2e04:	10c8b03a 	or	r4,r2,r3
    2e08:	1823883a 	mov	r17,r3
    2e0c:	31400005 	stb	r5,0(r6)
    2e10:	203fef1e 	bne	r4,zero,2dd0 <___vfprintf_internal_r+0x16f8>
    2e14:	003ccb06 	br	2144 <___vfprintf_internal_r+0xa6c>
    2e18:	00800c04 	movi	r2,48
    2e1c:	d98018c4 	addi	r6,sp,99
    2e20:	dd000f04 	addi	r20,sp,60
    2e24:	d88018c5 	stb	r2,99(sp)
    2e28:	d9814115 	stw	r6,1284(sp)
    2e2c:	003cc506 	br	2144 <___vfprintf_internal_r+0xa6c>
    2e30:	dc400d17 	ldw	r17,52(sp)
    2e34:	07000074 	movhi	fp,1
    2e38:	e73a8484 	addi	fp,fp,-5614
    2e3c:	003bc706 	br	1d5c <___vfprintf_internal_r+0x684>
    2e40:	d9414c17 	ldw	r5,1328(sp)
    2e44:	2880040c 	andi	r2,r5,16
    2e48:	10007c26 	beq	r2,zero,303c <___vfprintf_internal_r+0x1964>
    2e4c:	38800017 	ldw	r2,0(r7)
    2e50:	39c00104 	addi	r7,r7,4
    2e54:	d9c14015 	stw	r7,1280(sp)
    2e58:	d9814b17 	ldw	r6,1324(sp)
    2e5c:	d9c14017 	ldw	r7,1280(sp)
    2e60:	11800015 	stw	r6,0(r2)
    2e64:	003a7806 	br	1848 <___vfprintf_internal_r+0x170>
    2e68:	d9014f17 	ldw	r4,1340(sp)
    2e6c:	b00b883a 	mov	r5,r22
    2e70:	d9800c04 	addi	r6,sp,48
    2e74:	00016800 	call	1680 <__sprint_r>
    2e78:	103bcf1e 	bne	r2,zero,1db8 <___vfprintf_internal_r+0x6e0>
    2e7c:	dc800e17 	ldw	r18,56(sp)
    2e80:	dc400d17 	ldw	r17,52(sp)
    2e84:	d8c01904 	addi	r3,sp,100
    2e88:	d9014717 	ldw	r4,1308(sp)
    2e8c:	d9414117 	ldw	r5,1284(sp)
    2e90:	8c400044 	addi	r17,r17,1
    2e94:	9125883a 	add	r18,r18,r4
    2e98:	008001c4 	movi	r2,7
    2e9c:	19400015 	stw	r5,0(r3)
    2ea0:	19000115 	stw	r4,4(r3)
    2ea4:	dc800e15 	stw	r18,56(sp)
    2ea8:	dc400d15 	stw	r17,52(sp)
    2eac:	147cee16 	blt	r2,r17,2268 <___vfprintf_internal_r+0xb90>
    2eb0:	18c00204 	addi	r3,r3,8
    2eb4:	003b8606 	br	1cd0 <___vfprintf_internal_r+0x5f8>
    2eb8:	38c00017 	ldw	r3,0(r7)
    2ebc:	39000204 	addi	r4,r7,8
    2ec0:	d9014015 	stw	r4,1280(sp)
    2ec4:	d8c14215 	stw	r3,1288(sp)
    2ec8:	39c00117 	ldw	r7,4(r7)
    2ecc:	d9c14315 	stw	r7,1292(sp)
    2ed0:	003e2006 	br	2754 <___vfprintf_internal_r+0x107c>
    2ed4:	0005883a 	mov	r2,zero
    2ed8:	1409c83a 	sub	r4,r2,r16
    2edc:	1105803a 	cmpltu	r2,r2,r4
    2ee0:	044bc83a 	sub	r5,zero,r17
    2ee4:	2885c83a 	sub	r2,r5,r2
    2ee8:	2021883a 	mov	r16,r4
    2eec:	1023883a 	mov	r17,r2
    2ef0:	01000044 	movi	r4,1
    2ef4:	00800b44 	movi	r2,45
    2ef8:	d8800405 	stb	r2,16(sp)
    2efc:	003c8406 	br	2110 <___vfprintf_internal_r+0xa38>
    2f00:	d9014f17 	ldw	r4,1340(sp)
    2f04:	b00b883a 	mov	r5,r22
    2f08:	d9800c04 	addi	r6,sp,48
    2f0c:	00016800 	call	1680 <__sprint_r>
    2f10:	103ba91e 	bne	r2,zero,1db8 <___vfprintf_internal_r+0x6e0>
    2f14:	dc800e17 	ldw	r18,56(sp)
    2f18:	dc400d17 	ldw	r17,52(sp)
    2f1c:	d9000517 	ldw	r4,20(sp)
    2f20:	d9401904 	addi	r5,sp,100
    2f24:	003da706 	br	25c4 <___vfprintf_internal_r+0xeec>
    2f28:	d9014f17 	ldw	r4,1340(sp)
    2f2c:	b00b883a 	mov	r5,r22
    2f30:	d9800c04 	addi	r6,sp,48
    2f34:	00016800 	call	1680 <__sprint_r>
    2f38:	103b9f1e 	bne	r2,zero,1db8 <___vfprintf_internal_r+0x6e0>
    2f3c:	dc800e17 	ldw	r18,56(sp)
    2f40:	dc400d17 	ldw	r17,52(sp)
    2f44:	d9000517 	ldw	r4,20(sp)
    2f48:	d8c01904 	addi	r3,sp,100
    2f4c:	003d9106 	br	2594 <___vfprintf_internal_r+0xebc>
    2f50:	07000074 	movhi	fp,1
    2f54:	e73a8084 	addi	fp,fp,-5630
    2f58:	9425883a 	add	r18,r18,r16
    2f5c:	8c400044 	addi	r17,r17,1
    2f60:	008001c4 	movi	r2,7
    2f64:	1f000015 	stw	fp,0(r3)
    2f68:	1c000115 	stw	r16,4(r3)
    2f6c:	dc800e15 	stw	r18,56(sp)
    2f70:	dc400d15 	stw	r17,52(sp)
    2f74:	147fbc16 	blt	r2,r17,2e68 <___vfprintf_internal_r+0x1790>
    2f78:	18c00204 	addi	r3,r3,8
    2f7c:	003fc206 	br	2e88 <___vfprintf_internal_r+0x17b0>
    2f80:	d9014f17 	ldw	r4,1340(sp)
    2f84:	b00b883a 	mov	r5,r22
    2f88:	d9800c04 	addi	r6,sp,48
    2f8c:	00016800 	call	1680 <__sprint_r>
    2f90:	103b891e 	bne	r2,zero,1db8 <___vfprintf_internal_r+0x6e0>
    2f94:	dc800e17 	ldw	r18,56(sp)
    2f98:	d9000517 	ldw	r4,20(sp)
    2f9c:	d8c01904 	addi	r3,sp,100
    2fa0:	003d0206 	br	23ac <___vfprintf_internal_r+0xcd4>
    2fa4:	07000074 	movhi	fp,1
    2fa8:	e73a8084 	addi	fp,fp,-5630
    2fac:	003be406 	br	1f40 <___vfprintf_internal_r+0x868>
    2fb0:	00800074 	movhi	r2,1
    2fb4:	10ba6f04 	addi	r2,r2,-5700
    2fb8:	d8814115 	stw	r2,1284(sp)
    2fbc:	003df506 	br	2794 <___vfprintf_internal_r+0x10bc>
    2fc0:	d9014217 	ldw	r4,1288(sp)
    2fc4:	d9414317 	ldw	r5,1292(sp)
    2fc8:	00080b80 	call	80b8 <__isnand>
    2fcc:	10003926 	beq	r2,zero,30b4 <___vfprintf_internal_r+0x19dc>
    2fd0:	d9414d17 	ldw	r5,1332(sp)
    2fd4:	008011c4 	movi	r2,71
    2fd8:	1140ce16 	blt	r2,r5,3314 <___vfprintf_internal_r+0x1c3c>
    2fdc:	01800074 	movhi	r6,1
    2fe0:	31ba7004 	addi	r6,r6,-5696
    2fe4:	d9814115 	stw	r6,1284(sp)
    2fe8:	003dea06 	br	2794 <___vfprintf_internal_r+0x10bc>
    2fec:	d9014c17 	ldw	r4,1328(sp)
    2ff0:	bdc00044 	addi	r23,r23,1
    2ff4:	b8c00007 	ldb	r3,0(r23)
    2ff8:	21000814 	ori	r4,r4,32
    2ffc:	d9014c15 	stw	r4,1328(sp)
    3000:	003a3406 	br	18d4 <___vfprintf_internal_r+0x1fc>
    3004:	dcc14515 	stw	r19,1300(sp)
    3008:	98011016 	blt	r19,zero,344c <___vfprintf_internal_r+0x1d74>
    300c:	980f883a 	mov	r7,r19
    3010:	d8014615 	stw	zero,1304(sp)
    3014:	003c5206 	br	2160 <___vfprintf_internal_r+0xa88>
    3018:	d9014f17 	ldw	r4,1340(sp)
    301c:	b00b883a 	mov	r5,r22
    3020:	d9800c04 	addi	r6,sp,48
    3024:	00016800 	call	1680 <__sprint_r>
    3028:	103b631e 	bne	r2,zero,1db8 <___vfprintf_internal_r+0x6e0>
    302c:	dc800e17 	ldw	r18,56(sp)
    3030:	d9000517 	ldw	r4,20(sp)
    3034:	d8c01904 	addi	r3,sp,100
    3038:	003f2e06 	br	2cf4 <___vfprintf_internal_r+0x161c>
    303c:	d8c14c17 	ldw	r3,1328(sp)
    3040:	1880100c 	andi	r2,r3,64
    3044:	1000a026 	beq	r2,zero,32c8 <___vfprintf_internal_r+0x1bf0>
    3048:	38800017 	ldw	r2,0(r7)
    304c:	39c00104 	addi	r7,r7,4
    3050:	d9c14015 	stw	r7,1280(sp)
    3054:	d9014b17 	ldw	r4,1324(sp)
    3058:	d9c14017 	ldw	r7,1280(sp)
    305c:	1100000d 	sth	r4,0(r2)
    3060:	0039f906 	br	1848 <___vfprintf_internal_r+0x170>
    3064:	d9014f17 	ldw	r4,1340(sp)
    3068:	b00b883a 	mov	r5,r22
    306c:	d9800c04 	addi	r6,sp,48
    3070:	00016800 	call	1680 <__sprint_r>
    3074:	103b501e 	bne	r2,zero,1db8 <___vfprintf_internal_r+0x6e0>
    3078:	dc800e17 	ldw	r18,56(sp)
    307c:	dc400d17 	ldw	r17,52(sp)
    3080:	d9000517 	ldw	r4,20(sp)
    3084:	d8c01904 	addi	r3,sp,100
    3088:	003f2d06 	br	2d40 <___vfprintf_internal_r+0x1668>
    308c:	00800184 	movi	r2,6
    3090:	14c09a36 	bltu	r2,r19,32fc <___vfprintf_internal_r+0x1c24>
    3094:	dcc14515 	stw	r19,1300(sp)
    3098:	9800010e 	bge	r19,zero,30a0 <___vfprintf_internal_r+0x19c8>
    309c:	d8014515 	stw	zero,1300(sp)
    30a0:	00800074 	movhi	r2,1
    30a4:	10ba7204 	addi	r2,r2,-5688
    30a8:	980f883a 	mov	r7,r19
    30ac:	d8814115 	stw	r2,1284(sp)
    30b0:	003a7806 	br	1a94 <___vfprintf_internal_r+0x3bc>
    30b4:	00bfffc4 	movi	r2,-1
    30b8:	9880e226 	beq	r19,r2,3444 <___vfprintf_internal_r+0x1d6c>
    30bc:	d9414d17 	ldw	r5,1332(sp)
    30c0:	008019c4 	movi	r2,103
    30c4:	2880dc26 	beq	r5,r2,3438 <___vfprintf_internal_r+0x1d60>
    30c8:	008011c4 	movi	r2,71
    30cc:	2880da26 	beq	r5,r2,3438 <___vfprintf_internal_r+0x1d60>
    30d0:	d9414c17 	ldw	r5,1328(sp)
    30d4:	d9014317 	ldw	r4,1292(sp)
    30d8:	d9814217 	ldw	r6,1288(sp)
    30dc:	29404014 	ori	r5,r5,256
    30e0:	d9414c15 	stw	r5,1328(sp)
    30e4:	2000cc16 	blt	r4,zero,3418 <___vfprintf_internal_r+0x1d40>
    30e8:	3021883a 	mov	r16,r6
    30ec:	2023883a 	mov	r17,r4
    30f0:	0039883a 	mov	fp,zero
    30f4:	d9414d17 	ldw	r5,1332(sp)
    30f8:	00801984 	movi	r2,102
    30fc:	2880b726 	beq	r5,r2,33dc <___vfprintf_internal_r+0x1d04>
    3100:	00801184 	movi	r2,70
    3104:	2880b526 	beq	r5,r2,33dc <___vfprintf_internal_r+0x1d04>
    3108:	00801944 	movi	r2,101
    310c:	2880c826 	beq	r5,r2,3430 <___vfprintf_internal_r+0x1d58>
    3110:	00801144 	movi	r2,69
    3114:	2880c626 	beq	r5,r2,3430 <___vfprintf_internal_r+0x1d58>
    3118:	9829883a 	mov	r20,r19
    311c:	d9014f17 	ldw	r4,1340(sp)
    3120:	d8800504 	addi	r2,sp,20
    3124:	880d883a 	mov	r6,r17
    3128:	d8800115 	stw	r2,4(sp)
    312c:	d8c00604 	addi	r3,sp,24
    3130:	d8800704 	addi	r2,sp,28
    3134:	800b883a 	mov	r5,r16
    3138:	01c00084 	movi	r7,2
    313c:	d8c00215 	stw	r3,8(sp)
    3140:	d8800315 	stw	r2,12(sp)
    3144:	dd000015 	stw	r20,0(sp)
    3148:	00038fc0 	call	38fc <_dtoa_r>
    314c:	d9814d17 	ldw	r6,1332(sp)
    3150:	d8814115 	stw	r2,1284(sp)
    3154:	008019c4 	movi	r2,103
    3158:	30809526 	beq	r6,r2,33b0 <___vfprintf_internal_r+0x1cd8>
    315c:	d8c14d17 	ldw	r3,1332(sp)
    3160:	008011c4 	movi	r2,71
    3164:	18809226 	beq	r3,r2,33b0 <___vfprintf_internal_r+0x1cd8>
    3168:	d9414117 	ldw	r5,1284(sp)
    316c:	d9814d17 	ldw	r6,1332(sp)
    3170:	00801984 	movi	r2,102
    3174:	2d25883a 	add	r18,r5,r20
    3178:	30808626 	beq	r6,r2,3394 <___vfprintf_internal_r+0x1cbc>
    317c:	00801184 	movi	r2,70
    3180:	30808426 	beq	r6,r2,3394 <___vfprintf_internal_r+0x1cbc>
    3184:	000d883a 	mov	r6,zero
    3188:	000f883a 	mov	r7,zero
    318c:	880b883a 	mov	r5,r17
    3190:	8009883a 	mov	r4,r16
    3194:	0009ea00 	call	9ea0 <__eqdf2>
    3198:	1000751e 	bne	r2,zero,3370 <___vfprintf_internal_r+0x1c98>
    319c:	9005883a 	mov	r2,r18
    31a0:	dc800715 	stw	r18,28(sp)
    31a4:	d9014117 	ldw	r4,1284(sp)
    31a8:	d9414d17 	ldw	r5,1332(sp)
    31ac:	00c019c4 	movi	r3,103
    31b0:	1125c83a 	sub	r18,r2,r4
    31b4:	28c06826 	beq	r5,r3,3358 <___vfprintf_internal_r+0x1c80>
    31b8:	008011c4 	movi	r2,71
    31bc:	28806626 	beq	r5,r2,3358 <___vfprintf_internal_r+0x1c80>
    31c0:	d9000517 	ldw	r4,20(sp)
    31c4:	d8c14d17 	ldw	r3,1332(sp)
    31c8:	00801944 	movi	r2,101
    31cc:	10c05516 	blt	r2,r3,3324 <___vfprintf_internal_r+0x1c4c>
    31d0:	213fffc4 	addi	r4,r4,-1
    31d4:	d9000515 	stw	r4,20(sp)
    31d8:	d8c00805 	stb	r3,32(sp)
    31dc:	2021883a 	mov	r16,r4
    31e0:	2000c116 	blt	r4,zero,34e8 <___vfprintf_internal_r+0x1e10>
    31e4:	00800ac4 	movi	r2,43
    31e8:	d8800845 	stb	r2,33(sp)
    31ec:	00800244 	movi	r2,9
    31f0:	1400af0e 	bge	r2,r16,34b0 <___vfprintf_internal_r+0x1dd8>
    31f4:	1027883a 	mov	r19,r2
    31f8:	dc400b84 	addi	r17,sp,46
    31fc:	8009883a 	mov	r4,r16
    3200:	01400284 	movi	r5,10
    3204:	00010880 	call	1088 <__modsi3>
    3208:	10800c04 	addi	r2,r2,48
    320c:	8c7fffc4 	addi	r17,r17,-1
    3210:	8009883a 	mov	r4,r16
    3214:	01400284 	movi	r5,10
    3218:	88800005 	stb	r2,0(r17)
    321c:	00010280 	call	1028 <__divsi3>
    3220:	1021883a 	mov	r16,r2
    3224:	98bff516 	blt	r19,r2,31fc <___vfprintf_internal_r+0x1b24>
    3228:	10c00c04 	addi	r3,r2,48
    322c:	d88009c4 	addi	r2,sp,39
    3230:	108001c4 	addi	r2,r2,7
    3234:	897fffc4 	addi	r5,r17,-1
    3238:	88ffffc5 	stb	r3,-1(r17)
    323c:	2880a72e 	bgeu	r5,r2,34dc <___vfprintf_internal_r+0x1e04>
    3240:	1009883a 	mov	r4,r2
    3244:	d9800804 	addi	r6,sp,32
    3248:	d8c00884 	addi	r3,sp,34
    324c:	28800003 	ldbu	r2,0(r5)
    3250:	29400044 	addi	r5,r5,1
    3254:	18800005 	stb	r2,0(r3)
    3258:	18c00044 	addi	r3,r3,1
    325c:	293ffb36 	bltu	r5,r4,324c <___vfprintf_internal_r+0x1b74>
    3260:	1987c83a 	sub	r3,r3,r6
    3264:	00800044 	movi	r2,1
    3268:	d8c14815 	stw	r3,1312(sp)
    326c:	90cf883a 	add	r7,r18,r3
    3270:	1480960e 	bge	r2,r18,34cc <___vfprintf_internal_r+0x1df4>
    3274:	39c00044 	addi	r7,r7,1
    3278:	d9c14515 	stw	r7,1300(sp)
    327c:	38003416 	blt	r7,zero,3350 <___vfprintf_internal_r+0x1c78>
    3280:	e0803fcc 	andi	r2,fp,255
    3284:	1080201c 	xori	r2,r2,128
    3288:	10bfe004 	addi	r2,r2,-128
    328c:	10004e26 	beq	r2,zero,33c8 <___vfprintf_internal_r+0x1cf0>
    3290:	00800b44 	movi	r2,45
    3294:	dc814715 	stw	r18,1308(sp)
    3298:	d8014615 	stw	zero,1304(sp)
    329c:	d8800405 	stb	r2,16(sp)
    32a0:	003bb106 	br	2168 <___vfprintf_internal_r+0xa90>
    32a4:	00800b44 	movi	r2,45
    32a8:	d8800405 	stb	r2,16(sp)
    32ac:	003d3306 	br	277c <___vfprintf_internal_r+0x10a4>
    32b0:	d9014f17 	ldw	r4,1340(sp)
    32b4:	b00b883a 	mov	r5,r22
    32b8:	d9800c04 	addi	r6,sp,48
    32bc:	00016800 	call	1680 <__sprint_r>
    32c0:	103abd1e 	bne	r2,zero,1db8 <___vfprintf_internal_r+0x6e0>
    32c4:	003abb06 	br	1db4 <___vfprintf_internal_r+0x6dc>
    32c8:	38800017 	ldw	r2,0(r7)
    32cc:	39c00104 	addi	r7,r7,4
    32d0:	d9c14015 	stw	r7,1280(sp)
    32d4:	d9414b17 	ldw	r5,1324(sp)
    32d8:	d9c14017 	ldw	r7,1280(sp)
    32dc:	11400015 	stw	r5,0(r2)
    32e0:	00395906 	br	1848 <___vfprintf_internal_r+0x170>
    32e4:	980f883a 	mov	r7,r19
    32e8:	dcc14515 	stw	r19,1300(sp)
    32ec:	d8014615 	stw	zero,1304(sp)
    32f0:	003b9b06 	br	2160 <___vfprintf_internal_r+0xa88>
    32f4:	0027883a 	mov	r19,zero
    32f8:	00397806 	br	18dc <___vfprintf_internal_r+0x204>
    32fc:	00c00074 	movhi	r3,1
    3300:	18fa7204 	addi	r3,r3,-5688
    3304:	100f883a 	mov	r7,r2
    3308:	d8814515 	stw	r2,1300(sp)
    330c:	d8c14115 	stw	r3,1284(sp)
    3310:	0039e006 	br	1a94 <___vfprintf_internal_r+0x3bc>
    3314:	00800074 	movhi	r2,1
    3318:	10ba7104 	addi	r2,r2,-5692
    331c:	d8814115 	stw	r2,1284(sp)
    3320:	003d1c06 	br	2794 <___vfprintf_internal_r+0x10bc>
    3324:	d9414d17 	ldw	r5,1332(sp)
    3328:	00801984 	movi	r2,102
    332c:	28804926 	beq	r5,r2,3454 <___vfprintf_internal_r+0x1d7c>
    3330:	200f883a 	mov	r7,r4
    3334:	24805716 	blt	r4,r18,3494 <___vfprintf_internal_r+0x1dbc>
    3338:	d9414c17 	ldw	r5,1328(sp)
    333c:	2880004c 	andi	r2,r5,1
    3340:	10000126 	beq	r2,zero,3348 <___vfprintf_internal_r+0x1c70>
    3344:	21c00044 	addi	r7,r4,1
    3348:	d9c14515 	stw	r7,1300(sp)
    334c:	383fcc0e 	bge	r7,zero,3280 <___vfprintf_internal_r+0x1ba8>
    3350:	d8014515 	stw	zero,1300(sp)
    3354:	003fca06 	br	3280 <___vfprintf_internal_r+0x1ba8>
    3358:	d9000517 	ldw	r4,20(sp)
    335c:	00bfff04 	movi	r2,-4
    3360:	1100480e 	bge	r2,r4,3484 <___vfprintf_internal_r+0x1dac>
    3364:	99004716 	blt	r19,r4,3484 <___vfprintf_internal_r+0x1dac>
    3368:	d8c14d15 	stw	r3,1332(sp)
    336c:	003ff006 	br	3330 <___vfprintf_internal_r+0x1c58>
    3370:	d8800717 	ldw	r2,28(sp)
    3374:	14bf8b2e 	bgeu	r2,r18,31a4 <___vfprintf_internal_r+0x1acc>
    3378:	9007883a 	mov	r3,r18
    337c:	01000c04 	movi	r4,48
    3380:	11000005 	stb	r4,0(r2)
    3384:	10800044 	addi	r2,r2,1
    3388:	d8800715 	stw	r2,28(sp)
    338c:	18bffc1e 	bne	r3,r2,3380 <___vfprintf_internal_r+0x1ca8>
    3390:	003f8406 	br	31a4 <___vfprintf_internal_r+0x1acc>
    3394:	d8814117 	ldw	r2,1284(sp)
    3398:	10c00007 	ldb	r3,0(r2)
    339c:	00800c04 	movi	r2,48
    33a0:	18805b26 	beq	r3,r2,3510 <___vfprintf_internal_r+0x1e38>
    33a4:	d9000517 	ldw	r4,20(sp)
    33a8:	9125883a 	add	r18,r18,r4
    33ac:	003f7506 	br	3184 <___vfprintf_internal_r+0x1aac>
    33b0:	d9014c17 	ldw	r4,1328(sp)
    33b4:	2080004c 	andi	r2,r4,1
    33b8:	1005003a 	cmpeq	r2,r2,zero
    33bc:	103f6a26 	beq	r2,zero,3168 <___vfprintf_internal_r+0x1a90>
    33c0:	d8800717 	ldw	r2,28(sp)
    33c4:	003f7706 	br	31a4 <___vfprintf_internal_r+0x1acc>
    33c8:	d9c14515 	stw	r7,1300(sp)
    33cc:	38004d16 	blt	r7,zero,3504 <___vfprintf_internal_r+0x1e2c>
    33d0:	dc814715 	stw	r18,1308(sp)
    33d4:	d8014615 	stw	zero,1304(sp)
    33d8:	003b6106 	br	2160 <___vfprintf_internal_r+0xa88>
    33dc:	d9014f17 	ldw	r4,1340(sp)
    33e0:	d8800504 	addi	r2,sp,20
    33e4:	d8800115 	stw	r2,4(sp)
    33e8:	d8c00604 	addi	r3,sp,24
    33ec:	d8800704 	addi	r2,sp,28
    33f0:	800b883a 	mov	r5,r16
    33f4:	880d883a 	mov	r6,r17
    33f8:	01c000c4 	movi	r7,3
    33fc:	d8c00215 	stw	r3,8(sp)
    3400:	d8800315 	stw	r2,12(sp)
    3404:	dcc00015 	stw	r19,0(sp)
    3408:	9829883a 	mov	r20,r19
    340c:	00038fc0 	call	38fc <_dtoa_r>
    3410:	d8814115 	stw	r2,1284(sp)
    3414:	003f5106 	br	315c <___vfprintf_internal_r+0x1a84>
    3418:	d8c14217 	ldw	r3,1288(sp)
    341c:	d9014317 	ldw	r4,1292(sp)
    3420:	07000b44 	movi	fp,45
    3424:	1821883a 	mov	r16,r3
    3428:	2460003c 	xorhi	r17,r4,32768
    342c:	003f3106 	br	30f4 <___vfprintf_internal_r+0x1a1c>
    3430:	9d000044 	addi	r20,r19,1
    3434:	003f3906 	br	311c <___vfprintf_internal_r+0x1a44>
    3438:	983f251e 	bne	r19,zero,30d0 <___vfprintf_internal_r+0x19f8>
    343c:	04c00044 	movi	r19,1
    3440:	003f2306 	br	30d0 <___vfprintf_internal_r+0x19f8>
    3444:	04c00184 	movi	r19,6
    3448:	003f2106 	br	30d0 <___vfprintf_internal_r+0x19f8>
    344c:	d8014515 	stw	zero,1300(sp)
    3450:	003eee06 	br	300c <___vfprintf_internal_r+0x1934>
    3454:	200f883a 	mov	r7,r4
    3458:	0100370e 	bge	zero,r4,3538 <___vfprintf_internal_r+0x1e60>
    345c:	9800031e 	bne	r19,zero,346c <___vfprintf_internal_r+0x1d94>
    3460:	d9814c17 	ldw	r6,1328(sp)
    3464:	3080004c 	andi	r2,r6,1
    3468:	103fb726 	beq	r2,zero,3348 <___vfprintf_internal_r+0x1c70>
    346c:	20800044 	addi	r2,r4,1
    3470:	98a7883a 	add	r19,r19,r2
    3474:	dcc14515 	stw	r19,1300(sp)
    3478:	980f883a 	mov	r7,r19
    347c:	983f800e 	bge	r19,zero,3280 <___vfprintf_internal_r+0x1ba8>
    3480:	003fb306 	br	3350 <___vfprintf_internal_r+0x1c78>
    3484:	d9814d17 	ldw	r6,1332(sp)
    3488:	31bfff84 	addi	r6,r6,-2
    348c:	d9814d15 	stw	r6,1332(sp)
    3490:	003f4c06 	br	31c4 <___vfprintf_internal_r+0x1aec>
    3494:	0100180e 	bge	zero,r4,34f8 <___vfprintf_internal_r+0x1e20>
    3498:	00800044 	movi	r2,1
    349c:	1485883a 	add	r2,r2,r18
    34a0:	d8814515 	stw	r2,1300(sp)
    34a4:	100f883a 	mov	r7,r2
    34a8:	103f750e 	bge	r2,zero,3280 <___vfprintf_internal_r+0x1ba8>
    34ac:	003fa806 	br	3350 <___vfprintf_internal_r+0x1c78>
    34b0:	80c00c04 	addi	r3,r16,48
    34b4:	00800c04 	movi	r2,48
    34b8:	d8c008c5 	stb	r3,35(sp)
    34bc:	d9800804 	addi	r6,sp,32
    34c0:	d8c00904 	addi	r3,sp,36
    34c4:	d8800885 	stb	r2,34(sp)
    34c8:	003f6506 	br	3260 <___vfprintf_internal_r+0x1b88>
    34cc:	d9014c17 	ldw	r4,1328(sp)
    34d0:	2084703a 	and	r2,r4,r2
    34d4:	103f9c26 	beq	r2,zero,3348 <___vfprintf_internal_r+0x1c70>
    34d8:	003f6606 	br	3274 <___vfprintf_internal_r+0x1b9c>
    34dc:	d9800804 	addi	r6,sp,32
    34e0:	d8c00884 	addi	r3,sp,34
    34e4:	003f5e06 	br	3260 <___vfprintf_internal_r+0x1b88>
    34e8:	00800b44 	movi	r2,45
    34ec:	0121c83a 	sub	r16,zero,r4
    34f0:	d8800845 	stb	r2,33(sp)
    34f4:	003f3d06 	br	31ec <___vfprintf_internal_r+0x1b14>
    34f8:	00800084 	movi	r2,2
    34fc:	1105c83a 	sub	r2,r2,r4
    3500:	003fe606 	br	349c <___vfprintf_internal_r+0x1dc4>
    3504:	d8014515 	stw	zero,1300(sp)
    3508:	dc814715 	stw	r18,1308(sp)
    350c:	003fb106 	br	33d4 <___vfprintf_internal_r+0x1cfc>
    3510:	000d883a 	mov	r6,zero
    3514:	000f883a 	mov	r7,zero
    3518:	8009883a 	mov	r4,r16
    351c:	880b883a 	mov	r5,r17
    3520:	0009f280 	call	9f28 <__nedf2>
    3524:	103f9f26 	beq	r2,zero,33a4 <___vfprintf_internal_r+0x1ccc>
    3528:	00800044 	movi	r2,1
    352c:	1509c83a 	sub	r4,r2,r20
    3530:	d9000515 	stw	r4,20(sp)
    3534:	003f9b06 	br	33a4 <___vfprintf_internal_r+0x1ccc>
    3538:	98000d1e 	bne	r19,zero,3570 <___vfprintf_internal_r+0x1e98>
    353c:	d8c14c17 	ldw	r3,1328(sp)
    3540:	1880004c 	andi	r2,r3,1
    3544:	10000a1e 	bne	r2,zero,3570 <___vfprintf_internal_r+0x1e98>
    3548:	01000044 	movi	r4,1
    354c:	200f883a 	mov	r7,r4
    3550:	d9014515 	stw	r4,1300(sp)
    3554:	003f4a06 	br	3280 <___vfprintf_internal_r+0x1ba8>
    3558:	3cc00017 	ldw	r19,0(r7)
    355c:	39c00104 	addi	r7,r7,4
    3560:	983d0e0e 	bge	r19,zero,299c <___vfprintf_internal_r+0x12c4>
    3564:	b8c00007 	ldb	r3,0(r23)
    3568:	04ffffc4 	movi	r19,-1
    356c:	0038d906 	br	18d4 <___vfprintf_internal_r+0x1fc>
    3570:	9cc00084 	addi	r19,r19,2
    3574:	dcc14515 	stw	r19,1300(sp)
    3578:	980f883a 	mov	r7,r19
    357c:	983f400e 	bge	r19,zero,3280 <___vfprintf_internal_r+0x1ba8>
    3580:	003f7306 	br	3350 <___vfprintf_internal_r+0x1c78>

00003584 <__vfprintf_internal>:
    3584:	00800074 	movhi	r2,1
    3588:	1081b304 	addi	r2,r2,1740
    358c:	2013883a 	mov	r9,r4
    3590:	11000017 	ldw	r4,0(r2)
    3594:	2805883a 	mov	r2,r5
    3598:	300f883a 	mov	r7,r6
    359c:	480b883a 	mov	r5,r9
    35a0:	100d883a 	mov	r6,r2
    35a4:	00016d81 	jmpi	16d8 <___vfprintf_internal_r>

000035a8 <__swsetup_r>:
    35a8:	00800074 	movhi	r2,1
    35ac:	1081b304 	addi	r2,r2,1740
    35b0:	10c00017 	ldw	r3,0(r2)
    35b4:	defffd04 	addi	sp,sp,-12
    35b8:	dc400115 	stw	r17,4(sp)
    35bc:	dc000015 	stw	r16,0(sp)
    35c0:	dfc00215 	stw	ra,8(sp)
    35c4:	2023883a 	mov	r17,r4
    35c8:	2821883a 	mov	r16,r5
    35cc:	18000226 	beq	r3,zero,35d8 <__swsetup_r+0x30>
    35d0:	18800e17 	ldw	r2,56(r3)
    35d4:	10001f26 	beq	r2,zero,3654 <__swsetup_r+0xac>
    35d8:	8100030b 	ldhu	r4,12(r16)
    35dc:	2080020c 	andi	r2,r4,8
    35e0:	10002826 	beq	r2,zero,3684 <__swsetup_r+0xdc>
    35e4:	81400417 	ldw	r5,16(r16)
    35e8:	28001d26 	beq	r5,zero,3660 <__swsetup_r+0xb8>
    35ec:	2080004c 	andi	r2,r4,1
    35f0:	1005003a 	cmpeq	r2,r2,zero
    35f4:	10000b26 	beq	r2,zero,3624 <__swsetup_r+0x7c>
    35f8:	2080008c 	andi	r2,r4,2
    35fc:	10001226 	beq	r2,zero,3648 <__swsetup_r+0xa0>
    3600:	0005883a 	mov	r2,zero
    3604:	80800215 	stw	r2,8(r16)
    3608:	28000b26 	beq	r5,zero,3638 <__swsetup_r+0x90>
    360c:	0005883a 	mov	r2,zero
    3610:	dfc00217 	ldw	ra,8(sp)
    3614:	dc400117 	ldw	r17,4(sp)
    3618:	dc000017 	ldw	r16,0(sp)
    361c:	dec00304 	addi	sp,sp,12
    3620:	f800283a 	ret
    3624:	80800517 	ldw	r2,20(r16)
    3628:	80000215 	stw	zero,8(r16)
    362c:	0085c83a 	sub	r2,zero,r2
    3630:	80800615 	stw	r2,24(r16)
    3634:	283ff51e 	bne	r5,zero,360c <__swsetup_r+0x64>
    3638:	2080200c 	andi	r2,r4,128
    363c:	103ff326 	beq	r2,zero,360c <__swsetup_r+0x64>
    3640:	00bfffc4 	movi	r2,-1
    3644:	003ff206 	br	3610 <__swsetup_r+0x68>
    3648:	80800517 	ldw	r2,20(r16)
    364c:	80800215 	stw	r2,8(r16)
    3650:	003fed06 	br	3608 <__swsetup_r+0x60>
    3654:	1809883a 	mov	r4,r3
    3658:	00051480 	call	5148 <__sinit>
    365c:	003fde06 	br	35d8 <__swsetup_r+0x30>
    3660:	20c0a00c 	andi	r3,r4,640
    3664:	00808004 	movi	r2,512
    3668:	18bfe026 	beq	r3,r2,35ec <__swsetup_r+0x44>
    366c:	8809883a 	mov	r4,r17
    3670:	800b883a 	mov	r5,r16
    3674:	0005ec00 	call	5ec0 <__smakebuf_r>
    3678:	8100030b 	ldhu	r4,12(r16)
    367c:	81400417 	ldw	r5,16(r16)
    3680:	003fda06 	br	35ec <__swsetup_r+0x44>
    3684:	2080040c 	andi	r2,r4,16
    3688:	103fed26 	beq	r2,zero,3640 <__swsetup_r+0x98>
    368c:	2080010c 	andi	r2,r4,4
    3690:	10001226 	beq	r2,zero,36dc <__swsetup_r+0x134>
    3694:	81400c17 	ldw	r5,48(r16)
    3698:	28000526 	beq	r5,zero,36b0 <__swsetup_r+0x108>
    369c:	80801004 	addi	r2,r16,64
    36a0:	28800226 	beq	r5,r2,36ac <__swsetup_r+0x104>
    36a4:	8809883a 	mov	r4,r17
    36a8:	00054cc0 	call	54cc <_free_r>
    36ac:	80000c15 	stw	zero,48(r16)
    36b0:	8080030b 	ldhu	r2,12(r16)
    36b4:	81400417 	ldw	r5,16(r16)
    36b8:	80000115 	stw	zero,4(r16)
    36bc:	10bff6cc 	andi	r2,r2,65499
    36c0:	8080030d 	sth	r2,12(r16)
    36c4:	81400015 	stw	r5,0(r16)
    36c8:	8080030b 	ldhu	r2,12(r16)
    36cc:	10800214 	ori	r2,r2,8
    36d0:	113fffcc 	andi	r4,r2,65535
    36d4:	8080030d 	sth	r2,12(r16)
    36d8:	003fc306 	br	35e8 <__swsetup_r+0x40>
    36dc:	81400417 	ldw	r5,16(r16)
    36e0:	003ff906 	br	36c8 <__swsetup_r+0x120>

000036e4 <quorem>:
    36e4:	28c00417 	ldw	r3,16(r5)
    36e8:	20800417 	ldw	r2,16(r4)
    36ec:	defff604 	addi	sp,sp,-40
    36f0:	ddc00715 	stw	r23,28(sp)
    36f4:	dd400515 	stw	r21,20(sp)
    36f8:	dfc00915 	stw	ra,36(sp)
    36fc:	df000815 	stw	fp,32(sp)
    3700:	dd800615 	stw	r22,24(sp)
    3704:	dd000415 	stw	r20,16(sp)
    3708:	dcc00315 	stw	r19,12(sp)
    370c:	dc800215 	stw	r18,8(sp)
    3710:	dc400115 	stw	r17,4(sp)
    3714:	dc000015 	stw	r16,0(sp)
    3718:	202f883a 	mov	r23,r4
    371c:	282b883a 	mov	r21,r5
    3720:	10c07416 	blt	r2,r3,38f4 <quorem+0x210>
    3724:	1c7fffc4 	addi	r17,r3,-1
    3728:	8c45883a 	add	r2,r17,r17
    372c:	1085883a 	add	r2,r2,r2
    3730:	2c000504 	addi	r16,r5,20
    3734:	24c00504 	addi	r19,r4,20
    3738:	14ed883a 	add	r22,r2,r19
    373c:	80a5883a 	add	r18,r16,r2
    3740:	b7000017 	ldw	fp,0(r22)
    3744:	91400017 	ldw	r5,0(r18)
    3748:	e009883a 	mov	r4,fp
    374c:	29400044 	addi	r5,r5,1
    3750:	00010e80 	call	10e8 <__udivsi3>
    3754:	1029883a 	mov	r20,r2
    3758:	10003c1e 	bne	r2,zero,384c <quorem+0x168>
    375c:	a80b883a 	mov	r5,r21
    3760:	b809883a 	mov	r4,r23
    3764:	0006bec0 	call	6bec <__mcmp>
    3768:	10002b16 	blt	r2,zero,3818 <quorem+0x134>
    376c:	a5000044 	addi	r20,r20,1
    3770:	980f883a 	mov	r7,r19
    3774:	0011883a 	mov	r8,zero
    3778:	0009883a 	mov	r4,zero
    377c:	81400017 	ldw	r5,0(r16)
    3780:	38c00017 	ldw	r3,0(r7)
    3784:	84000104 	addi	r16,r16,4
    3788:	28bfffcc 	andi	r2,r5,65535
    378c:	2085883a 	add	r2,r4,r2
    3790:	11bfffcc 	andi	r6,r2,65535
    3794:	193fffcc 	andi	r4,r3,65535
    3798:	1004d43a 	srli	r2,r2,16
    379c:	280ad43a 	srli	r5,r5,16
    37a0:	2189c83a 	sub	r4,r4,r6
    37a4:	2209883a 	add	r4,r4,r8
    37a8:	1806d43a 	srli	r3,r3,16
    37ac:	288b883a 	add	r5,r5,r2
    37b0:	200dd43a 	srai	r6,r4,16
    37b4:	28bfffcc 	andi	r2,r5,65535
    37b8:	1887c83a 	sub	r3,r3,r2
    37bc:	1987883a 	add	r3,r3,r6
    37c0:	3900000d 	sth	r4,0(r7)
    37c4:	38c0008d 	sth	r3,2(r7)
    37c8:	2808d43a 	srli	r4,r5,16
    37cc:	39c00104 	addi	r7,r7,4
    37d0:	1811d43a 	srai	r8,r3,16
    37d4:	943fe92e 	bgeu	r18,r16,377c <quorem+0x98>
    37d8:	8c45883a 	add	r2,r17,r17
    37dc:	1085883a 	add	r2,r2,r2
    37e0:	9885883a 	add	r2,r19,r2
    37e4:	10c00017 	ldw	r3,0(r2)
    37e8:	18000b1e 	bne	r3,zero,3818 <quorem+0x134>
    37ec:	113fff04 	addi	r4,r2,-4
    37f0:	9900082e 	bgeu	r19,r4,3814 <quorem+0x130>
    37f4:	10bfff17 	ldw	r2,-4(r2)
    37f8:	10000326 	beq	r2,zero,3808 <quorem+0x124>
    37fc:	00000506 	br	3814 <quorem+0x130>
    3800:	20800017 	ldw	r2,0(r4)
    3804:	1000031e 	bne	r2,zero,3814 <quorem+0x130>
    3808:	213fff04 	addi	r4,r4,-4
    380c:	8c7fffc4 	addi	r17,r17,-1
    3810:	993ffb36 	bltu	r19,r4,3800 <quorem+0x11c>
    3814:	bc400415 	stw	r17,16(r23)
    3818:	a005883a 	mov	r2,r20
    381c:	dfc00917 	ldw	ra,36(sp)
    3820:	df000817 	ldw	fp,32(sp)
    3824:	ddc00717 	ldw	r23,28(sp)
    3828:	dd800617 	ldw	r22,24(sp)
    382c:	dd400517 	ldw	r21,20(sp)
    3830:	dd000417 	ldw	r20,16(sp)
    3834:	dcc00317 	ldw	r19,12(sp)
    3838:	dc800217 	ldw	r18,8(sp)
    383c:	dc400117 	ldw	r17,4(sp)
    3840:	dc000017 	ldw	r16,0(sp)
    3844:	dec00a04 	addi	sp,sp,40
    3848:	f800283a 	ret
    384c:	980f883a 	mov	r7,r19
    3850:	8011883a 	mov	r8,r16
    3854:	0013883a 	mov	r9,zero
    3858:	000d883a 	mov	r6,zero
    385c:	40c00017 	ldw	r3,0(r8)
    3860:	39000017 	ldw	r4,0(r7)
    3864:	42000104 	addi	r8,r8,4
    3868:	18bfffcc 	andi	r2,r3,65535
    386c:	a085383a 	mul	r2,r20,r2
    3870:	1806d43a 	srli	r3,r3,16
    3874:	217fffcc 	andi	r5,r4,65535
    3878:	3085883a 	add	r2,r6,r2
    387c:	11bfffcc 	andi	r6,r2,65535
    3880:	a0c7383a 	mul	r3,r20,r3
    3884:	1004d43a 	srli	r2,r2,16
    3888:	298bc83a 	sub	r5,r5,r6
    388c:	2a4b883a 	add	r5,r5,r9
    3890:	2008d43a 	srli	r4,r4,16
    3894:	1887883a 	add	r3,r3,r2
    3898:	280dd43a 	srai	r6,r5,16
    389c:	18bfffcc 	andi	r2,r3,65535
    38a0:	2089c83a 	sub	r4,r4,r2
    38a4:	2189883a 	add	r4,r4,r6
    38a8:	3900008d 	sth	r4,2(r7)
    38ac:	3940000d 	sth	r5,0(r7)
    38b0:	180cd43a 	srli	r6,r3,16
    38b4:	39c00104 	addi	r7,r7,4
    38b8:	2013d43a 	srai	r9,r4,16
    38bc:	923fe72e 	bgeu	r18,r8,385c <quorem+0x178>
    38c0:	e03fa61e 	bne	fp,zero,375c <quorem+0x78>
    38c4:	b0ffff04 	addi	r3,r22,-4
    38c8:	98c0082e 	bgeu	r19,r3,38ec <quorem+0x208>
    38cc:	b0bfff17 	ldw	r2,-4(r22)
    38d0:	10000326 	beq	r2,zero,38e0 <quorem+0x1fc>
    38d4:	00000506 	br	38ec <quorem+0x208>
    38d8:	18800017 	ldw	r2,0(r3)
    38dc:	1000031e 	bne	r2,zero,38ec <quorem+0x208>
    38e0:	18ffff04 	addi	r3,r3,-4
    38e4:	8c7fffc4 	addi	r17,r17,-1
    38e8:	98fffb36 	bltu	r19,r3,38d8 <quorem+0x1f4>
    38ec:	bc400415 	stw	r17,16(r23)
    38f0:	003f9a06 	br	375c <quorem+0x78>
    38f4:	0005883a 	mov	r2,zero
    38f8:	003fc806 	br	381c <quorem+0x138>

000038fc <_dtoa_r>:
    38fc:	22001017 	ldw	r8,64(r4)
    3900:	deffda04 	addi	sp,sp,-152
    3904:	dd402115 	stw	r21,132(sp)
    3908:	dd002015 	stw	r20,128(sp)
    390c:	dc801e15 	stw	r18,120(sp)
    3910:	dc401d15 	stw	r17,116(sp)
    3914:	dfc02515 	stw	ra,148(sp)
    3918:	df002415 	stw	fp,144(sp)
    391c:	ddc02315 	stw	r23,140(sp)
    3920:	dd802215 	stw	r22,136(sp)
    3924:	dcc01f15 	stw	r19,124(sp)
    3928:	dc001c15 	stw	r16,112(sp)
    392c:	d9001615 	stw	r4,88(sp)
    3930:	3023883a 	mov	r17,r6
    3934:	2829883a 	mov	r20,r5
    3938:	d9c01715 	stw	r7,92(sp)
    393c:	dc802817 	ldw	r18,160(sp)
    3940:	302b883a 	mov	r21,r6
    3944:	40000a26 	beq	r8,zero,3970 <_dtoa_r+0x74>
    3948:	20801117 	ldw	r2,68(r4)
    394c:	400b883a 	mov	r5,r8
    3950:	40800115 	stw	r2,4(r8)
    3954:	20c01117 	ldw	r3,68(r4)
    3958:	00800044 	movi	r2,1
    395c:	10c4983a 	sll	r2,r2,r3
    3960:	40800215 	stw	r2,8(r8)
    3964:	0006a900 	call	6a90 <_Bfree>
    3968:	d8c01617 	ldw	r3,88(sp)
    396c:	18001015 	stw	zero,64(r3)
    3970:	8800a316 	blt	r17,zero,3c00 <_dtoa_r+0x304>
    3974:	90000015 	stw	zero,0(r18)
    3978:	a8dffc2c 	andhi	r3,r21,32752
    397c:	009ffc34 	movhi	r2,32752
    3980:	18809126 	beq	r3,r2,3bc8 <_dtoa_r+0x2cc>
    3984:	000d883a 	mov	r6,zero
    3988:	000f883a 	mov	r7,zero
    398c:	a009883a 	mov	r4,r20
    3990:	a80b883a 	mov	r5,r21
    3994:	dd001215 	stw	r20,72(sp)
    3998:	dd401315 	stw	r21,76(sp)
    399c:	0009f280 	call	9f28 <__nedf2>
    39a0:	1000171e 	bne	r2,zero,3a00 <_dtoa_r+0x104>
    39a4:	d9802717 	ldw	r6,156(sp)
    39a8:	00800044 	movi	r2,1
    39ac:	30800015 	stw	r2,0(r6)
    39b0:	d8802917 	ldw	r2,164(sp)
    39b4:	10029b26 	beq	r2,zero,4424 <_dtoa_r+0xb28>
    39b8:	d9002917 	ldw	r4,164(sp)
    39bc:	00800074 	movhi	r2,1
    39c0:	10ba8044 	addi	r2,r2,-5631
    39c4:	10ffffc4 	addi	r3,r2,-1
    39c8:	20800015 	stw	r2,0(r4)
    39cc:	1805883a 	mov	r2,r3
    39d0:	dfc02517 	ldw	ra,148(sp)
    39d4:	df002417 	ldw	fp,144(sp)
    39d8:	ddc02317 	ldw	r23,140(sp)
    39dc:	dd802217 	ldw	r22,136(sp)
    39e0:	dd402117 	ldw	r21,132(sp)
    39e4:	dd002017 	ldw	r20,128(sp)
    39e8:	dcc01f17 	ldw	r19,124(sp)
    39ec:	dc801e17 	ldw	r18,120(sp)
    39f0:	dc401d17 	ldw	r17,116(sp)
    39f4:	dc001c17 	ldw	r16,112(sp)
    39f8:	dec02604 	addi	sp,sp,152
    39fc:	f800283a 	ret
    3a00:	d9001617 	ldw	r4,88(sp)
    3a04:	d9401217 	ldw	r5,72(sp)
    3a08:	d8800104 	addi	r2,sp,4
    3a0c:	a80d883a 	mov	r6,r21
    3a10:	d9c00204 	addi	r7,sp,8
    3a14:	d8800015 	stw	r2,0(sp)
    3a18:	00070cc0 	call	70cc <__d2b>
    3a1c:	d8800715 	stw	r2,28(sp)
    3a20:	a804d53a 	srli	r2,r21,20
    3a24:	1101ffcc 	andi	r4,r2,2047
    3a28:	20008626 	beq	r4,zero,3c44 <_dtoa_r+0x348>
    3a2c:	d8c01217 	ldw	r3,72(sp)
    3a30:	00800434 	movhi	r2,16
    3a34:	10bfffc4 	addi	r2,r2,-1
    3a38:	ddc00117 	ldw	r23,4(sp)
    3a3c:	a884703a 	and	r2,r21,r2
    3a40:	1811883a 	mov	r8,r3
    3a44:	124ffc34 	orhi	r9,r2,16368
    3a48:	25bf0044 	addi	r22,r4,-1023
    3a4c:	d8000815 	stw	zero,32(sp)
    3a50:	0005883a 	mov	r2,zero
    3a54:	00cffe34 	movhi	r3,16376
    3a58:	480b883a 	mov	r5,r9
    3a5c:	4009883a 	mov	r4,r8
    3a60:	180f883a 	mov	r7,r3
    3a64:	100d883a 	mov	r6,r2
    3a68:	00097900 	call	9790 <__subdf3>
    3a6c:	0218dbf4 	movhi	r8,25455
    3a70:	4210d844 	addi	r8,r8,17249
    3a74:	024ff4f4 	movhi	r9,16339
    3a78:	4a61e9c4 	addi	r9,r9,-30809
    3a7c:	480f883a 	mov	r7,r9
    3a80:	400d883a 	mov	r6,r8
    3a84:	180b883a 	mov	r5,r3
    3a88:	1009883a 	mov	r4,r2
    3a8c:	00098840 	call	9884 <__muldf3>
    3a90:	0222d874 	movhi	r8,35681
    3a94:	42322cc4 	addi	r8,r8,-14157
    3a98:	024ff1f4 	movhi	r9,16327
    3a9c:	4a628a04 	addi	r9,r9,-30168
    3aa0:	480f883a 	mov	r7,r9
    3aa4:	400d883a 	mov	r6,r8
    3aa8:	180b883a 	mov	r5,r3
    3aac:	1009883a 	mov	r4,r2
    3ab0:	00098100 	call	9810 <__adddf3>
    3ab4:	b009883a 	mov	r4,r22
    3ab8:	1021883a 	mov	r16,r2
    3abc:	1823883a 	mov	r17,r3
    3ac0:	000a1480 	call	a148 <__floatsidf>
    3ac4:	021427f4 	movhi	r8,20639
    3ac8:	421e7ec4 	addi	r8,r8,31227
    3acc:	024ff4f4 	movhi	r9,16339
    3ad0:	4a5104c4 	addi	r9,r9,17427
    3ad4:	480f883a 	mov	r7,r9
    3ad8:	400d883a 	mov	r6,r8
    3adc:	180b883a 	mov	r5,r3
    3ae0:	1009883a 	mov	r4,r2
    3ae4:	00098840 	call	9884 <__muldf3>
    3ae8:	180f883a 	mov	r7,r3
    3aec:	880b883a 	mov	r5,r17
    3af0:	100d883a 	mov	r6,r2
    3af4:	8009883a 	mov	r4,r16
    3af8:	00098100 	call	9810 <__adddf3>
    3afc:	1009883a 	mov	r4,r2
    3b00:	180b883a 	mov	r5,r3
    3b04:	1021883a 	mov	r16,r2
    3b08:	1823883a 	mov	r17,r3
    3b0c:	000a2400 	call	a240 <__fixdfsi>
    3b10:	000d883a 	mov	r6,zero
    3b14:	000f883a 	mov	r7,zero
    3b18:	8009883a 	mov	r4,r16
    3b1c:	880b883a 	mov	r5,r17
    3b20:	d8800d15 	stw	r2,52(sp)
    3b24:	000a0c00 	call	a0c0 <__ltdf2>
    3b28:	10031716 	blt	r2,zero,4788 <_dtoa_r+0xe8c>
    3b2c:	d8c00d17 	ldw	r3,52(sp)
    3b30:	00800584 	movi	r2,22
    3b34:	10c1482e 	bgeu	r2,r3,4058 <_dtoa_r+0x75c>
    3b38:	01000044 	movi	r4,1
    3b3c:	d9000c15 	stw	r4,48(sp)
    3b40:	bd85c83a 	sub	r2,r23,r22
    3b44:	11bfffc4 	addi	r6,r2,-1
    3b48:	30030b16 	blt	r6,zero,4778 <_dtoa_r+0xe7c>
    3b4c:	d9800a15 	stw	r6,40(sp)
    3b50:	d8001115 	stw	zero,68(sp)
    3b54:	d8c00d17 	ldw	r3,52(sp)
    3b58:	1802ff16 	blt	r3,zero,4758 <_dtoa_r+0xe5c>
    3b5c:	d9000a17 	ldw	r4,40(sp)
    3b60:	d8c00915 	stw	r3,36(sp)
    3b64:	d8001015 	stw	zero,64(sp)
    3b68:	20c9883a 	add	r4,r4,r3
    3b6c:	d9000a15 	stw	r4,40(sp)
    3b70:	d9001717 	ldw	r4,92(sp)
    3b74:	00800244 	movi	r2,9
    3b78:	11004636 	bltu	r2,r4,3c94 <_dtoa_r+0x398>
    3b7c:	00800144 	movi	r2,5
    3b80:	11020416 	blt	r2,r4,4394 <_dtoa_r+0xa98>
    3b84:	04400044 	movi	r17,1
    3b88:	d8c01717 	ldw	r3,92(sp)
    3b8c:	00800144 	movi	r2,5
    3b90:	10c1ed36 	bltu	r2,r3,4348 <_dtoa_r+0xa4c>
    3b94:	18c5883a 	add	r2,r3,r3
    3b98:	1085883a 	add	r2,r2,r2
    3b9c:	00c00034 	movhi	r3,0
    3ba0:	18ceec04 	addi	r3,r3,15280
    3ba4:	10c5883a 	add	r2,r2,r3
    3ba8:	11000017 	ldw	r4,0(r2)
    3bac:	2000683a 	jmp	r4
    3bb0:	00003c9c 	xori	zero,zero,242
    3bb4:	00003c9c 	xori	zero,zero,242
    3bb8:	0000469c 	xori	zero,zero,282
    3bbc:	00004674 	movhi	zero,281
    3bc0:	000046b8 	rdprs	zero,zero,282
    3bc4:	000046c4 	movi	zero,283
    3bc8:	d9002717 	ldw	r4,156(sp)
    3bcc:	0089c3c4 	movi	r2,9999
    3bd0:	20800015 	stw	r2,0(r4)
    3bd4:	a0001026 	beq	r20,zero,3c18 <_dtoa_r+0x31c>
    3bd8:	00c00074 	movhi	r3,1
    3bdc:	18fa8c04 	addi	r3,r3,-5584
    3be0:	d9802917 	ldw	r6,164(sp)
    3be4:	303f7926 	beq	r6,zero,39cc <_dtoa_r+0xd0>
    3be8:	188000c7 	ldb	r2,3(r3)
    3bec:	190000c4 	addi	r4,r3,3
    3bf0:	1000101e 	bne	r2,zero,3c34 <_dtoa_r+0x338>
    3bf4:	d8802917 	ldw	r2,164(sp)
    3bf8:	11000015 	stw	r4,0(r2)
    3bfc:	003f7306 	br	39cc <_dtoa_r+0xd0>
    3c00:	00a00034 	movhi	r2,32768
    3c04:	10bfffc4 	addi	r2,r2,-1
    3c08:	00c00044 	movi	r3,1
    3c0c:	88aa703a 	and	r21,r17,r2
    3c10:	90c00015 	stw	r3,0(r18)
    3c14:	003f5806 	br	3978 <_dtoa_r+0x7c>
    3c18:	00800434 	movhi	r2,16
    3c1c:	10bfffc4 	addi	r2,r2,-1
    3c20:	a884703a 	and	r2,r21,r2
    3c24:	103fec1e 	bne	r2,zero,3bd8 <_dtoa_r+0x2dc>
    3c28:	00c00074 	movhi	r3,1
    3c2c:	18fa8904 	addi	r3,r3,-5596
    3c30:	003feb06 	br	3be0 <_dtoa_r+0x2e4>
    3c34:	d8802917 	ldw	r2,164(sp)
    3c38:	19000204 	addi	r4,r3,8
    3c3c:	11000015 	stw	r4,0(r2)
    3c40:	003f6206 	br	39cc <_dtoa_r+0xd0>
    3c44:	ddc00117 	ldw	r23,4(sp)
    3c48:	d8800217 	ldw	r2,8(sp)
    3c4c:	01000804 	movi	r4,32
    3c50:	b8c10c84 	addi	r3,r23,1074
    3c54:	18a3883a 	add	r17,r3,r2
    3c58:	2441b80e 	bge	r4,r17,433c <_dtoa_r+0xa40>
    3c5c:	00c01004 	movi	r3,64
    3c60:	1c47c83a 	sub	r3,r3,r17
    3c64:	88bff804 	addi	r2,r17,-32
    3c68:	a8c6983a 	sll	r3,r21,r3
    3c6c:	a084d83a 	srl	r2,r20,r2
    3c70:	1888b03a 	or	r4,r3,r2
    3c74:	000a3180 	call	a318 <__floatunsidf>
    3c78:	1011883a 	mov	r8,r2
    3c7c:	00bf8434 	movhi	r2,65040
    3c80:	01000044 	movi	r4,1
    3c84:	10d3883a 	add	r9,r2,r3
    3c88:	8dbef344 	addi	r22,r17,-1075
    3c8c:	d9000815 	stw	r4,32(sp)
    3c90:	003f6f06 	br	3a50 <_dtoa_r+0x154>
    3c94:	d8001715 	stw	zero,92(sp)
    3c98:	04400044 	movi	r17,1
    3c9c:	00bfffc4 	movi	r2,-1
    3ca0:	00c00044 	movi	r3,1
    3ca4:	d8800e15 	stw	r2,56(sp)
    3ca8:	d8002615 	stw	zero,152(sp)
    3cac:	d8800f15 	stw	r2,60(sp)
    3cb0:	d8c00b15 	stw	r3,44(sp)
    3cb4:	1021883a 	mov	r16,r2
    3cb8:	d8801617 	ldw	r2,88(sp)
    3cbc:	10001115 	stw	zero,68(r2)
    3cc0:	d8801617 	ldw	r2,88(sp)
    3cc4:	11401117 	ldw	r5,68(r2)
    3cc8:	1009883a 	mov	r4,r2
    3ccc:	00070100 	call	7010 <_Balloc>
    3cd0:	d8c01617 	ldw	r3,88(sp)
    3cd4:	d8800515 	stw	r2,20(sp)
    3cd8:	18801015 	stw	r2,64(r3)
    3cdc:	00800384 	movi	r2,14
    3ce0:	14006836 	bltu	r2,r16,3e84 <_dtoa_r+0x588>
    3ce4:	8805003a 	cmpeq	r2,r17,zero
    3ce8:	1000661e 	bne	r2,zero,3e84 <_dtoa_r+0x588>
    3cec:	d9000d17 	ldw	r4,52(sp)
    3cf0:	0102300e 	bge	zero,r4,45b4 <_dtoa_r+0xcb8>
    3cf4:	208003cc 	andi	r2,r4,15
    3cf8:	100490fa 	slli	r2,r2,3
    3cfc:	2025d13a 	srai	r18,r4,4
    3d00:	00c00074 	movhi	r3,1
    3d04:	18fa9e04 	addi	r3,r3,-5512
    3d08:	10c5883a 	add	r2,r2,r3
    3d0c:	90c0040c 	andi	r3,r18,16
    3d10:	14000017 	ldw	r16,0(r2)
    3d14:	14400117 	ldw	r17,4(r2)
    3d18:	18036a1e 	bne	r3,zero,4ac4 <_dtoa_r+0x11c8>
    3d1c:	05800084 	movi	r22,2
    3d20:	90001026 	beq	r18,zero,3d64 <_dtoa_r+0x468>
    3d24:	04c00074 	movhi	r19,1
    3d28:	9cfad004 	addi	r19,r19,-5312
    3d2c:	9080004c 	andi	r2,r18,1
    3d30:	1005003a 	cmpeq	r2,r2,zero
    3d34:	1000081e 	bne	r2,zero,3d58 <_dtoa_r+0x45c>
    3d38:	99800017 	ldw	r6,0(r19)
    3d3c:	99c00117 	ldw	r7,4(r19)
    3d40:	880b883a 	mov	r5,r17
    3d44:	8009883a 	mov	r4,r16
    3d48:	00098840 	call	9884 <__muldf3>
    3d4c:	1021883a 	mov	r16,r2
    3d50:	b5800044 	addi	r22,r22,1
    3d54:	1823883a 	mov	r17,r3
    3d58:	9025d07a 	srai	r18,r18,1
    3d5c:	9cc00204 	addi	r19,r19,8
    3d60:	903ff21e 	bne	r18,zero,3d2c <_dtoa_r+0x430>
    3d64:	a80b883a 	mov	r5,r21
    3d68:	a009883a 	mov	r4,r20
    3d6c:	880f883a 	mov	r7,r17
    3d70:	800d883a 	mov	r6,r16
    3d74:	0009c480 	call	9c48 <__divdf3>
    3d78:	1029883a 	mov	r20,r2
    3d7c:	182b883a 	mov	r21,r3
    3d80:	d8c00c17 	ldw	r3,48(sp)
    3d84:	1805003a 	cmpeq	r2,r3,zero
    3d88:	1000081e 	bne	r2,zero,3dac <_dtoa_r+0x4b0>
    3d8c:	0005883a 	mov	r2,zero
    3d90:	00cffc34 	movhi	r3,16368
    3d94:	180f883a 	mov	r7,r3
    3d98:	a009883a 	mov	r4,r20
    3d9c:	a80b883a 	mov	r5,r21
    3da0:	100d883a 	mov	r6,r2
    3da4:	000a0c00 	call	a0c0 <__ltdf2>
    3da8:	1003fe16 	blt	r2,zero,4da4 <_dtoa_r+0x14a8>
    3dac:	b009883a 	mov	r4,r22
    3db0:	000a1480 	call	a148 <__floatsidf>
    3db4:	180b883a 	mov	r5,r3
    3db8:	1009883a 	mov	r4,r2
    3dbc:	a00d883a 	mov	r6,r20
    3dc0:	a80f883a 	mov	r7,r21
    3dc4:	00098840 	call	9884 <__muldf3>
    3dc8:	0011883a 	mov	r8,zero
    3dcc:	02500734 	movhi	r9,16412
    3dd0:	1009883a 	mov	r4,r2
    3dd4:	180b883a 	mov	r5,r3
    3dd8:	480f883a 	mov	r7,r9
    3ddc:	400d883a 	mov	r6,r8
    3de0:	00098100 	call	9810 <__adddf3>
    3de4:	d9000f17 	ldw	r4,60(sp)
    3de8:	102d883a 	mov	r22,r2
    3dec:	00bf3034 	movhi	r2,64704
    3df0:	18b9883a 	add	fp,r3,r2
    3df4:	e02f883a 	mov	r23,fp
    3df8:	20028f1e 	bne	r4,zero,4838 <_dtoa_r+0xf3c>
    3dfc:	0005883a 	mov	r2,zero
    3e00:	00d00534 	movhi	r3,16404
    3e04:	a009883a 	mov	r4,r20
    3e08:	a80b883a 	mov	r5,r21
    3e0c:	180f883a 	mov	r7,r3
    3e10:	100d883a 	mov	r6,r2
    3e14:	00097900 	call	9790 <__subdf3>
    3e18:	1009883a 	mov	r4,r2
    3e1c:	e00f883a 	mov	r7,fp
    3e20:	180b883a 	mov	r5,r3
    3e24:	b00d883a 	mov	r6,r22
    3e28:	1025883a 	mov	r18,r2
    3e2c:	1827883a 	mov	r19,r3
    3e30:	0009fb00 	call	9fb0 <__gtdf2>
    3e34:	00834f16 	blt	zero,r2,4b74 <_dtoa_r+0x1278>
    3e38:	e0e0003c 	xorhi	r3,fp,32768
    3e3c:	9009883a 	mov	r4,r18
    3e40:	980b883a 	mov	r5,r19
    3e44:	180f883a 	mov	r7,r3
    3e48:	b00d883a 	mov	r6,r22
    3e4c:	000a0c00 	call	a0c0 <__ltdf2>
    3e50:	1000080e 	bge	r2,zero,3e74 <_dtoa_r+0x578>
    3e54:	0027883a 	mov	r19,zero
    3e58:	0025883a 	mov	r18,zero
    3e5c:	d8802617 	ldw	r2,152(sp)
    3e60:	df000517 	ldw	fp,20(sp)
    3e64:	d8000615 	stw	zero,24(sp)
    3e68:	0084303a 	nor	r2,zero,r2
    3e6c:	d8800d15 	stw	r2,52(sp)
    3e70:	00019b06 	br	44e0 <_dtoa_r+0xbe4>
    3e74:	d9801217 	ldw	r6,72(sp)
    3e78:	d8801317 	ldw	r2,76(sp)
    3e7c:	3029883a 	mov	r20,r6
    3e80:	102b883a 	mov	r21,r2
    3e84:	d8c00217 	ldw	r3,8(sp)
    3e88:	18008516 	blt	r3,zero,40a0 <_dtoa_r+0x7a4>
    3e8c:	d9000d17 	ldw	r4,52(sp)
    3e90:	00800384 	movi	r2,14
    3e94:	11008216 	blt	r2,r4,40a0 <_dtoa_r+0x7a4>
    3e98:	200490fa 	slli	r2,r4,3
    3e9c:	d9802617 	ldw	r6,152(sp)
    3ea0:	00c00074 	movhi	r3,1
    3ea4:	18fa9e04 	addi	r3,r3,-5512
    3ea8:	10c5883a 	add	r2,r2,r3
    3eac:	14800017 	ldw	r18,0(r2)
    3eb0:	14c00117 	ldw	r19,4(r2)
    3eb4:	30031e16 	blt	r6,zero,4b30 <_dtoa_r+0x1234>
    3eb8:	d9000517 	ldw	r4,20(sp)
    3ebc:	d8c00f17 	ldw	r3,60(sp)
    3ec0:	a823883a 	mov	r17,r21
    3ec4:	a021883a 	mov	r16,r20
    3ec8:	192b883a 	add	r21,r3,r4
    3ecc:	2039883a 	mov	fp,r4
    3ed0:	00000f06 	br	3f10 <_dtoa_r+0x614>
    3ed4:	0005883a 	mov	r2,zero
    3ed8:	00d00934 	movhi	r3,16420
    3edc:	5009883a 	mov	r4,r10
    3ee0:	580b883a 	mov	r5,r11
    3ee4:	180f883a 	mov	r7,r3
    3ee8:	100d883a 	mov	r6,r2
    3eec:	00098840 	call	9884 <__muldf3>
    3ef0:	180b883a 	mov	r5,r3
    3ef4:	000d883a 	mov	r6,zero
    3ef8:	000f883a 	mov	r7,zero
    3efc:	1009883a 	mov	r4,r2
    3f00:	1021883a 	mov	r16,r2
    3f04:	1823883a 	mov	r17,r3
    3f08:	0009f280 	call	9f28 <__nedf2>
    3f0c:	10004526 	beq	r2,zero,4024 <_dtoa_r+0x728>
    3f10:	900d883a 	mov	r6,r18
    3f14:	980f883a 	mov	r7,r19
    3f18:	8009883a 	mov	r4,r16
    3f1c:	880b883a 	mov	r5,r17
    3f20:	0009c480 	call	9c48 <__divdf3>
    3f24:	180b883a 	mov	r5,r3
    3f28:	1009883a 	mov	r4,r2
    3f2c:	000a2400 	call	a240 <__fixdfsi>
    3f30:	1009883a 	mov	r4,r2
    3f34:	1029883a 	mov	r20,r2
    3f38:	000a1480 	call	a148 <__floatsidf>
    3f3c:	180f883a 	mov	r7,r3
    3f40:	9009883a 	mov	r4,r18
    3f44:	980b883a 	mov	r5,r19
    3f48:	100d883a 	mov	r6,r2
    3f4c:	00098840 	call	9884 <__muldf3>
    3f50:	180f883a 	mov	r7,r3
    3f54:	880b883a 	mov	r5,r17
    3f58:	8009883a 	mov	r4,r16
    3f5c:	100d883a 	mov	r6,r2
    3f60:	00097900 	call	9790 <__subdf3>
    3f64:	1015883a 	mov	r10,r2
    3f68:	a0800c04 	addi	r2,r20,48
    3f6c:	e0800005 	stb	r2,0(fp)
    3f70:	e7000044 	addi	fp,fp,1
    3f74:	1817883a 	mov	r11,r3
    3f78:	e57fd61e 	bne	fp,r21,3ed4 <_dtoa_r+0x5d8>
    3f7c:	500d883a 	mov	r6,r10
    3f80:	180f883a 	mov	r7,r3
    3f84:	5009883a 	mov	r4,r10
    3f88:	180b883a 	mov	r5,r3
    3f8c:	00098100 	call	9810 <__adddf3>
    3f90:	100d883a 	mov	r6,r2
    3f94:	9009883a 	mov	r4,r18
    3f98:	980b883a 	mov	r5,r19
    3f9c:	180f883a 	mov	r7,r3
    3fa0:	1021883a 	mov	r16,r2
    3fa4:	1823883a 	mov	r17,r3
    3fa8:	000a0c00 	call	a0c0 <__ltdf2>
    3fac:	10000816 	blt	r2,zero,3fd0 <_dtoa_r+0x6d4>
    3fb0:	980b883a 	mov	r5,r19
    3fb4:	800d883a 	mov	r6,r16
    3fb8:	880f883a 	mov	r7,r17
    3fbc:	9009883a 	mov	r4,r18
    3fc0:	0009ea00 	call	9ea0 <__eqdf2>
    3fc4:	1000171e 	bne	r2,zero,4024 <_dtoa_r+0x728>
    3fc8:	a080004c 	andi	r2,r20,1
    3fcc:	10001526 	beq	r2,zero,4024 <_dtoa_r+0x728>
    3fd0:	d8800d17 	ldw	r2,52(sp)
    3fd4:	d8800415 	stw	r2,16(sp)
    3fd8:	e009883a 	mov	r4,fp
    3fdc:	213fffc4 	addi	r4,r4,-1
    3fe0:	20c00007 	ldb	r3,0(r4)
    3fe4:	00800e44 	movi	r2,57
    3fe8:	1880081e 	bne	r3,r2,400c <_dtoa_r+0x710>
    3fec:	d8800517 	ldw	r2,20(sp)
    3ff0:	113ffa1e 	bne	r2,r4,3fdc <_dtoa_r+0x6e0>
    3ff4:	d8c00417 	ldw	r3,16(sp)
    3ff8:	d9800517 	ldw	r6,20(sp)
    3ffc:	00800c04 	movi	r2,48
    4000:	18c00044 	addi	r3,r3,1
    4004:	d8c00415 	stw	r3,16(sp)
    4008:	30800005 	stb	r2,0(r6)
    400c:	20800003 	ldbu	r2,0(r4)
    4010:	d8c00417 	ldw	r3,16(sp)
    4014:	27000044 	addi	fp,r4,1
    4018:	10800044 	addi	r2,r2,1
    401c:	d8c00d15 	stw	r3,52(sp)
    4020:	20800005 	stb	r2,0(r4)
    4024:	d9001617 	ldw	r4,88(sp)
    4028:	d9400717 	ldw	r5,28(sp)
    402c:	0006a900 	call	6a90 <_Bfree>
    4030:	e0000005 	stb	zero,0(fp)
    4034:	d9800d17 	ldw	r6,52(sp)
    4038:	d8c02717 	ldw	r3,156(sp)
    403c:	d9002917 	ldw	r4,164(sp)
    4040:	30800044 	addi	r2,r6,1
    4044:	18800015 	stw	r2,0(r3)
    4048:	20029c26 	beq	r4,zero,4abc <_dtoa_r+0x11c0>
    404c:	d8c00517 	ldw	r3,20(sp)
    4050:	27000015 	stw	fp,0(r4)
    4054:	003e5d06 	br	39cc <_dtoa_r+0xd0>
    4058:	d9800d17 	ldw	r6,52(sp)
    405c:	00c00074 	movhi	r3,1
    4060:	18fa9e04 	addi	r3,r3,-5512
    4064:	d9001217 	ldw	r4,72(sp)
    4068:	300490fa 	slli	r2,r6,3
    406c:	d9401317 	ldw	r5,76(sp)
    4070:	10c5883a 	add	r2,r2,r3
    4074:	12000017 	ldw	r8,0(r2)
    4078:	12400117 	ldw	r9,4(r2)
    407c:	400d883a 	mov	r6,r8
    4080:	480f883a 	mov	r7,r9
    4084:	000a0c00 	call	a0c0 <__ltdf2>
    4088:	1000030e 	bge	r2,zero,4098 <_dtoa_r+0x79c>
    408c:	d8800d17 	ldw	r2,52(sp)
    4090:	10bfffc4 	addi	r2,r2,-1
    4094:	d8800d15 	stw	r2,52(sp)
    4098:	d8000c15 	stw	zero,48(sp)
    409c:	003ea806 	br	3b40 <_dtoa_r+0x244>
    40a0:	d9000b17 	ldw	r4,44(sp)
    40a4:	202cc03a 	cmpne	r22,r4,zero
    40a8:	b000c71e 	bne	r22,zero,43c8 <_dtoa_r+0xacc>
    40ac:	dc001117 	ldw	r16,68(sp)
    40b0:	dc801017 	ldw	r18,64(sp)
    40b4:	0027883a 	mov	r19,zero
    40b8:	04000b0e 	bge	zero,r16,40e8 <_dtoa_r+0x7ec>
    40bc:	d8c00a17 	ldw	r3,40(sp)
    40c0:	00c0090e 	bge	zero,r3,40e8 <_dtoa_r+0x7ec>
    40c4:	8005883a 	mov	r2,r16
    40c8:	1c011316 	blt	r3,r16,4518 <_dtoa_r+0xc1c>
    40cc:	d9000a17 	ldw	r4,40(sp)
    40d0:	d9801117 	ldw	r6,68(sp)
    40d4:	80a1c83a 	sub	r16,r16,r2
    40d8:	2089c83a 	sub	r4,r4,r2
    40dc:	308dc83a 	sub	r6,r6,r2
    40e0:	d9000a15 	stw	r4,40(sp)
    40e4:	d9801115 	stw	r6,68(sp)
    40e8:	d8801017 	ldw	r2,64(sp)
    40ec:	0080150e 	bge	zero,r2,4144 <_dtoa_r+0x848>
    40f0:	d8c00b17 	ldw	r3,44(sp)
    40f4:	1805003a 	cmpeq	r2,r3,zero
    40f8:	1001c91e 	bne	r2,zero,4820 <_dtoa_r+0xf24>
    40fc:	04800e0e 	bge	zero,r18,4138 <_dtoa_r+0x83c>
    4100:	d9001617 	ldw	r4,88(sp)
    4104:	980b883a 	mov	r5,r19
    4108:	900d883a 	mov	r6,r18
    410c:	00078440 	call	7844 <__pow5mult>
    4110:	d9001617 	ldw	r4,88(sp)
    4114:	d9800717 	ldw	r6,28(sp)
    4118:	100b883a 	mov	r5,r2
    411c:	1027883a 	mov	r19,r2
    4120:	00075200 	call	7520 <__multiply>
    4124:	d9001617 	ldw	r4,88(sp)
    4128:	d9400717 	ldw	r5,28(sp)
    412c:	1023883a 	mov	r17,r2
    4130:	0006a900 	call	6a90 <_Bfree>
    4134:	dc400715 	stw	r17,28(sp)
    4138:	d9001017 	ldw	r4,64(sp)
    413c:	248dc83a 	sub	r6,r4,r18
    4140:	30010e1e 	bne	r6,zero,457c <_dtoa_r+0xc80>
    4144:	d9001617 	ldw	r4,88(sp)
    4148:	04400044 	movi	r17,1
    414c:	880b883a 	mov	r5,r17
    4150:	00077080 	call	7708 <__i2b>
    4154:	d9800917 	ldw	r6,36(sp)
    4158:	1025883a 	mov	r18,r2
    415c:	0180040e 	bge	zero,r6,4170 <_dtoa_r+0x874>
    4160:	d9001617 	ldw	r4,88(sp)
    4164:	100b883a 	mov	r5,r2
    4168:	00078440 	call	7844 <__pow5mult>
    416c:	1025883a 	mov	r18,r2
    4170:	d8801717 	ldw	r2,92(sp)
    4174:	8880f30e 	bge	r17,r2,4544 <_dtoa_r+0xc48>
    4178:	0023883a 	mov	r17,zero
    417c:	d9800917 	ldw	r6,36(sp)
    4180:	30019e1e 	bne	r6,zero,47fc <_dtoa_r+0xf00>
    4184:	00c00044 	movi	r3,1
    4188:	d9000a17 	ldw	r4,40(sp)
    418c:	20c5883a 	add	r2,r4,r3
    4190:	10c007cc 	andi	r3,r2,31
    4194:	1800841e 	bne	r3,zero,43a8 <_dtoa_r+0xaac>
    4198:	00800704 	movi	r2,28
    419c:	d9000a17 	ldw	r4,40(sp)
    41a0:	d9801117 	ldw	r6,68(sp)
    41a4:	80a1883a 	add	r16,r16,r2
    41a8:	2089883a 	add	r4,r4,r2
    41ac:	308d883a 	add	r6,r6,r2
    41b0:	d9000a15 	stw	r4,40(sp)
    41b4:	d9801115 	stw	r6,68(sp)
    41b8:	d8801117 	ldw	r2,68(sp)
    41bc:	0080050e 	bge	zero,r2,41d4 <_dtoa_r+0x8d8>
    41c0:	d9400717 	ldw	r5,28(sp)
    41c4:	d9001617 	ldw	r4,88(sp)
    41c8:	100d883a 	mov	r6,r2
    41cc:	00073d40 	call	73d4 <__lshift>
    41d0:	d8800715 	stw	r2,28(sp)
    41d4:	d8c00a17 	ldw	r3,40(sp)
    41d8:	00c0050e 	bge	zero,r3,41f0 <_dtoa_r+0x8f4>
    41dc:	d9001617 	ldw	r4,88(sp)
    41e0:	900b883a 	mov	r5,r18
    41e4:	180d883a 	mov	r6,r3
    41e8:	00073d40 	call	73d4 <__lshift>
    41ec:	1025883a 	mov	r18,r2
    41f0:	d9000c17 	ldw	r4,48(sp)
    41f4:	2005003a 	cmpeq	r2,r4,zero
    41f8:	10016f26 	beq	r2,zero,47b8 <_dtoa_r+0xebc>
    41fc:	d9000f17 	ldw	r4,60(sp)
    4200:	0102170e 	bge	zero,r4,4a60 <_dtoa_r+0x1164>
    4204:	d9800b17 	ldw	r6,44(sp)
    4208:	3005003a 	cmpeq	r2,r6,zero
    420c:	1000881e 	bne	r2,zero,4430 <_dtoa_r+0xb34>
    4210:	0400050e 	bge	zero,r16,4228 <_dtoa_r+0x92c>
    4214:	d9001617 	ldw	r4,88(sp)
    4218:	980b883a 	mov	r5,r19
    421c:	800d883a 	mov	r6,r16
    4220:	00073d40 	call	73d4 <__lshift>
    4224:	1027883a 	mov	r19,r2
    4228:	8804c03a 	cmpne	r2,r17,zero
    422c:	1002541e 	bne	r2,zero,4b80 <_dtoa_r+0x1284>
    4230:	980b883a 	mov	r5,r19
    4234:	dd800517 	ldw	r22,20(sp)
    4238:	dcc00615 	stw	r19,24(sp)
    423c:	a700004c 	andi	fp,r20,1
    4240:	2827883a 	mov	r19,r5
    4244:	d9000717 	ldw	r4,28(sp)
    4248:	900b883a 	mov	r5,r18
    424c:	00036e40 	call	36e4 <quorem>
    4250:	d9000717 	ldw	r4,28(sp)
    4254:	d9400617 	ldw	r5,24(sp)
    4258:	1023883a 	mov	r17,r2
    425c:	8dc00c04 	addi	r23,r17,48
    4260:	0006bec0 	call	6bec <__mcmp>
    4264:	d9001617 	ldw	r4,88(sp)
    4268:	900b883a 	mov	r5,r18
    426c:	980d883a 	mov	r6,r19
    4270:	1029883a 	mov	r20,r2
    4274:	00072480 	call	7248 <__mdiff>
    4278:	102b883a 	mov	r21,r2
    427c:	10800317 	ldw	r2,12(r2)
    4280:	1001281e 	bne	r2,zero,4724 <_dtoa_r+0xe28>
    4284:	d9000717 	ldw	r4,28(sp)
    4288:	a80b883a 	mov	r5,r21
    428c:	0006bec0 	call	6bec <__mcmp>
    4290:	d9001617 	ldw	r4,88(sp)
    4294:	1021883a 	mov	r16,r2
    4298:	a80b883a 	mov	r5,r21
    429c:	0006a900 	call	6a90 <_Bfree>
    42a0:	8000041e 	bne	r16,zero,42b4 <_dtoa_r+0x9b8>
    42a4:	d8801717 	ldw	r2,92(sp)
    42a8:	1000021e 	bne	r2,zero,42b4 <_dtoa_r+0x9b8>
    42ac:	e004c03a 	cmpne	r2,fp,zero
    42b0:	10011726 	beq	r2,zero,4710 <_dtoa_r+0xe14>
    42b4:	a0010616 	blt	r20,zero,46d0 <_dtoa_r+0xdd4>
    42b8:	a000041e 	bne	r20,zero,42cc <_dtoa_r+0x9d0>
    42bc:	d8c01717 	ldw	r3,92(sp)
    42c0:	1800021e 	bne	r3,zero,42cc <_dtoa_r+0x9d0>
    42c4:	e004c03a 	cmpne	r2,fp,zero
    42c8:	10010126 	beq	r2,zero,46d0 <_dtoa_r+0xdd4>
    42cc:	04023d16 	blt	zero,r16,4bc4 <_dtoa_r+0x12c8>
    42d0:	b5c00005 	stb	r23,0(r22)
    42d4:	d9800517 	ldw	r6,20(sp)
    42d8:	d9000f17 	ldw	r4,60(sp)
    42dc:	b5800044 	addi	r22,r22,1
    42e0:	3105883a 	add	r2,r6,r4
    42e4:	b0806526 	beq	r22,r2,447c <_dtoa_r+0xb80>
    42e8:	d9400717 	ldw	r5,28(sp)
    42ec:	d9001617 	ldw	r4,88(sp)
    42f0:	01800284 	movi	r6,10
    42f4:	000f883a 	mov	r7,zero
    42f8:	00077440 	call	7744 <__multadd>
    42fc:	d8800715 	stw	r2,28(sp)
    4300:	d8800617 	ldw	r2,24(sp)
    4304:	14c10c26 	beq	r2,r19,4738 <_dtoa_r+0xe3c>
    4308:	d9400617 	ldw	r5,24(sp)
    430c:	d9001617 	ldw	r4,88(sp)
    4310:	01800284 	movi	r6,10
    4314:	000f883a 	mov	r7,zero
    4318:	00077440 	call	7744 <__multadd>
    431c:	d9001617 	ldw	r4,88(sp)
    4320:	980b883a 	mov	r5,r19
    4324:	01800284 	movi	r6,10
    4328:	000f883a 	mov	r7,zero
    432c:	d8800615 	stw	r2,24(sp)
    4330:	00077440 	call	7744 <__multadd>
    4334:	1027883a 	mov	r19,r2
    4338:	003fc206 	br	4244 <_dtoa_r+0x948>
    433c:	2445c83a 	sub	r2,r4,r17
    4340:	a088983a 	sll	r4,r20,r2
    4344:	003e4b06 	br	3c74 <_dtoa_r+0x378>
    4348:	01bfffc4 	movi	r6,-1
    434c:	00800044 	movi	r2,1
    4350:	d9800e15 	stw	r6,56(sp)
    4354:	d9800f15 	stw	r6,60(sp)
    4358:	d8800b15 	stw	r2,44(sp)
    435c:	d8c01617 	ldw	r3,88(sp)
    4360:	008005c4 	movi	r2,23
    4364:	18001115 	stw	zero,68(r3)
    4368:	1580082e 	bgeu	r2,r22,438c <_dtoa_r+0xa90>
    436c:	00c00104 	movi	r3,4
    4370:	0009883a 	mov	r4,zero
    4374:	18c7883a 	add	r3,r3,r3
    4378:	18800504 	addi	r2,r3,20
    437c:	21000044 	addi	r4,r4,1
    4380:	b0bffc2e 	bgeu	r22,r2,4374 <_dtoa_r+0xa78>
    4384:	d9801617 	ldw	r6,88(sp)
    4388:	31001115 	stw	r4,68(r6)
    438c:	dc000f17 	ldw	r16,60(sp)
    4390:	003e4b06 	br	3cc0 <_dtoa_r+0x3c4>
    4394:	d9801717 	ldw	r6,92(sp)
    4398:	0023883a 	mov	r17,zero
    439c:	31bfff04 	addi	r6,r6,-4
    43a0:	d9801715 	stw	r6,92(sp)
    43a4:	003df806 	br	3b88 <_dtoa_r+0x28c>
    43a8:	00800804 	movi	r2,32
    43ac:	10c9c83a 	sub	r4,r2,r3
    43b0:	00c00104 	movi	r3,4
    43b4:	19005a16 	blt	r3,r4,4520 <_dtoa_r+0xc24>
    43b8:	008000c4 	movi	r2,3
    43bc:	113f7e16 	blt	r2,r4,41b8 <_dtoa_r+0x8bc>
    43c0:	20800704 	addi	r2,r4,28
    43c4:	003f7506 	br	419c <_dtoa_r+0x8a0>
    43c8:	d9801717 	ldw	r6,92(sp)
    43cc:	00800044 	movi	r2,1
    43d0:	1180a10e 	bge	r2,r6,4658 <_dtoa_r+0xd5c>
    43d4:	d9800f17 	ldw	r6,60(sp)
    43d8:	d8c01017 	ldw	r3,64(sp)
    43dc:	30bfffc4 	addi	r2,r6,-1
    43e0:	1881c616 	blt	r3,r2,4afc <_dtoa_r+0x1200>
    43e4:	18a5c83a 	sub	r18,r3,r2
    43e8:	d8800f17 	ldw	r2,60(sp)
    43ec:	10026216 	blt	r2,zero,4d78 <_dtoa_r+0x147c>
    43f0:	dc001117 	ldw	r16,68(sp)
    43f4:	1007883a 	mov	r3,r2
    43f8:	d9800a17 	ldw	r6,40(sp)
    43fc:	d8801117 	ldw	r2,68(sp)
    4400:	d9001617 	ldw	r4,88(sp)
    4404:	30cd883a 	add	r6,r6,r3
    4408:	10c5883a 	add	r2,r2,r3
    440c:	01400044 	movi	r5,1
    4410:	d9800a15 	stw	r6,40(sp)
    4414:	d8801115 	stw	r2,68(sp)
    4418:	00077080 	call	7708 <__i2b>
    441c:	1027883a 	mov	r19,r2
    4420:	003f2506 	br	40b8 <_dtoa_r+0x7bc>
    4424:	00c00074 	movhi	r3,1
    4428:	18fa8004 	addi	r3,r3,-5632
    442c:	003d6706 	br	39cc <_dtoa_r+0xd0>
    4430:	dd800517 	ldw	r22,20(sp)
    4434:	04000044 	movi	r16,1
    4438:	00000706 	br	4458 <_dtoa_r+0xb5c>
    443c:	d9400717 	ldw	r5,28(sp)
    4440:	d9001617 	ldw	r4,88(sp)
    4444:	01800284 	movi	r6,10
    4448:	000f883a 	mov	r7,zero
    444c:	00077440 	call	7744 <__multadd>
    4450:	d8800715 	stw	r2,28(sp)
    4454:	84000044 	addi	r16,r16,1
    4458:	d9000717 	ldw	r4,28(sp)
    445c:	900b883a 	mov	r5,r18
    4460:	00036e40 	call	36e4 <quorem>
    4464:	15c00c04 	addi	r23,r2,48
    4468:	b5c00005 	stb	r23,0(r22)
    446c:	d8c00f17 	ldw	r3,60(sp)
    4470:	b5800044 	addi	r22,r22,1
    4474:	80fff116 	blt	r16,r3,443c <_dtoa_r+0xb40>
    4478:	d8000615 	stw	zero,24(sp)
    447c:	d9400717 	ldw	r5,28(sp)
    4480:	d9001617 	ldw	r4,88(sp)
    4484:	01800044 	movi	r6,1
    4488:	00073d40 	call	73d4 <__lshift>
    448c:	1009883a 	mov	r4,r2
    4490:	900b883a 	mov	r5,r18
    4494:	d8800715 	stw	r2,28(sp)
    4498:	0006bec0 	call	6bec <__mcmp>
    449c:	00803c0e 	bge	zero,r2,4590 <_dtoa_r+0xc94>
    44a0:	b009883a 	mov	r4,r22
    44a4:	213fffc4 	addi	r4,r4,-1
    44a8:	21400003 	ldbu	r5,0(r4)
    44ac:	00800e44 	movi	r2,57
    44b0:	28c03fcc 	andi	r3,r5,255
    44b4:	18c0201c 	xori	r3,r3,128
    44b8:	18ffe004 	addi	r3,r3,-128
    44bc:	1881981e 	bne	r3,r2,4b20 <_dtoa_r+0x1224>
    44c0:	d9800517 	ldw	r6,20(sp)
    44c4:	21bff71e 	bne	r4,r6,44a4 <_dtoa_r+0xba8>
    44c8:	d8800d17 	ldw	r2,52(sp)
    44cc:	37000044 	addi	fp,r6,1
    44d0:	10800044 	addi	r2,r2,1
    44d4:	d8800d15 	stw	r2,52(sp)
    44d8:	00800c44 	movi	r2,49
    44dc:	30800005 	stb	r2,0(r6)
    44e0:	d9001617 	ldw	r4,88(sp)
    44e4:	900b883a 	mov	r5,r18
    44e8:	0006a900 	call	6a90 <_Bfree>
    44ec:	983ecd26 	beq	r19,zero,4024 <_dtoa_r+0x728>
    44f0:	d8c00617 	ldw	r3,24(sp)
    44f4:	18000426 	beq	r3,zero,4508 <_dtoa_r+0xc0c>
    44f8:	1cc00326 	beq	r3,r19,4508 <_dtoa_r+0xc0c>
    44fc:	d9001617 	ldw	r4,88(sp)
    4500:	180b883a 	mov	r5,r3
    4504:	0006a900 	call	6a90 <_Bfree>
    4508:	d9001617 	ldw	r4,88(sp)
    450c:	980b883a 	mov	r5,r19
    4510:	0006a900 	call	6a90 <_Bfree>
    4514:	003ec306 	br	4024 <_dtoa_r+0x728>
    4518:	1805883a 	mov	r2,r3
    451c:	003eeb06 	br	40cc <_dtoa_r+0x7d0>
    4520:	d9800a17 	ldw	r6,40(sp)
    4524:	d8c01117 	ldw	r3,68(sp)
    4528:	20bfff04 	addi	r2,r4,-4
    452c:	308d883a 	add	r6,r6,r2
    4530:	1887883a 	add	r3,r3,r2
    4534:	80a1883a 	add	r16,r16,r2
    4538:	d9800a15 	stw	r6,40(sp)
    453c:	d8c01115 	stw	r3,68(sp)
    4540:	003f1d06 	br	41b8 <_dtoa_r+0x8bc>
    4544:	a03f0c1e 	bne	r20,zero,4178 <_dtoa_r+0x87c>
    4548:	00800434 	movhi	r2,16
    454c:	10bfffc4 	addi	r2,r2,-1
    4550:	a884703a 	and	r2,r21,r2
    4554:	103f081e 	bne	r2,zero,4178 <_dtoa_r+0x87c>
    4558:	a89ffc2c 	andhi	r2,r21,32752
    455c:	103f0626 	beq	r2,zero,4178 <_dtoa_r+0x87c>
    4560:	d8c01117 	ldw	r3,68(sp)
    4564:	d9000a17 	ldw	r4,40(sp)
    4568:	18c00044 	addi	r3,r3,1
    456c:	21000044 	addi	r4,r4,1
    4570:	d8c01115 	stw	r3,68(sp)
    4574:	d9000a15 	stw	r4,40(sp)
    4578:	003f0006 	br	417c <_dtoa_r+0x880>
    457c:	d9400717 	ldw	r5,28(sp)
    4580:	d9001617 	ldw	r4,88(sp)
    4584:	00078440 	call	7844 <__pow5mult>
    4588:	d8800715 	stw	r2,28(sp)
    458c:	003eed06 	br	4144 <_dtoa_r+0x848>
    4590:	1000021e 	bne	r2,zero,459c <_dtoa_r+0xca0>
    4594:	b880004c 	andi	r2,r23,1
    4598:	103fc11e 	bne	r2,zero,44a0 <_dtoa_r+0xba4>
    459c:	b5bfffc4 	addi	r22,r22,-1
    45a0:	b0c00007 	ldb	r3,0(r22)
    45a4:	00800c04 	movi	r2,48
    45a8:	18bffc26 	beq	r3,r2,459c <_dtoa_r+0xca0>
    45ac:	b7000044 	addi	fp,r22,1
    45b0:	003fcb06 	br	44e0 <_dtoa_r+0xbe4>
    45b4:	d9800d17 	ldw	r6,52(sp)
    45b8:	018fc83a 	sub	r7,zero,r6
    45bc:	3801f726 	beq	r7,zero,4d9c <_dtoa_r+0x14a0>
    45c0:	398003cc 	andi	r6,r7,15
    45c4:	300c90fa 	slli	r6,r6,3
    45c8:	01400074 	movhi	r5,1
    45cc:	297a9e04 	addi	r5,r5,-5512
    45d0:	d9001217 	ldw	r4,72(sp)
    45d4:	314d883a 	add	r6,r6,r5
    45d8:	30c00117 	ldw	r3,4(r6)
    45dc:	30800017 	ldw	r2,0(r6)
    45e0:	d9401317 	ldw	r5,76(sp)
    45e4:	3821d13a 	srai	r16,r7,4
    45e8:	100d883a 	mov	r6,r2
    45ec:	180f883a 	mov	r7,r3
    45f0:	00098840 	call	9884 <__muldf3>
    45f4:	1011883a 	mov	r8,r2
    45f8:	1813883a 	mov	r9,r3
    45fc:	1029883a 	mov	r20,r2
    4600:	182b883a 	mov	r21,r3
    4604:	8001e526 	beq	r16,zero,4d9c <_dtoa_r+0x14a0>
    4608:	05800084 	movi	r22,2
    460c:	04400074 	movhi	r17,1
    4610:	8c7ad004 	addi	r17,r17,-5312
    4614:	8080004c 	andi	r2,r16,1
    4618:	1005003a 	cmpeq	r2,r2,zero
    461c:	1000081e 	bne	r2,zero,4640 <_dtoa_r+0xd44>
    4620:	89800017 	ldw	r6,0(r17)
    4624:	89c00117 	ldw	r7,4(r17)
    4628:	480b883a 	mov	r5,r9
    462c:	4009883a 	mov	r4,r8
    4630:	00098840 	call	9884 <__muldf3>
    4634:	1011883a 	mov	r8,r2
    4638:	b5800044 	addi	r22,r22,1
    463c:	1813883a 	mov	r9,r3
    4640:	8021d07a 	srai	r16,r16,1
    4644:	8c400204 	addi	r17,r17,8
    4648:	803ff21e 	bne	r16,zero,4614 <_dtoa_r+0xd18>
    464c:	4029883a 	mov	r20,r8
    4650:	482b883a 	mov	r21,r9
    4654:	003dca06 	br	3d80 <_dtoa_r+0x484>
    4658:	d9000817 	ldw	r4,32(sp)
    465c:	2005003a 	cmpeq	r2,r4,zero
    4660:	1001f61e 	bne	r2,zero,4e3c <_dtoa_r+0x1540>
    4664:	dc001117 	ldw	r16,68(sp)
    4668:	dc801017 	ldw	r18,64(sp)
    466c:	18c10cc4 	addi	r3,r3,1075
    4670:	003f6106 	br	43f8 <_dtoa_r+0xafc>
    4674:	d8000b15 	stw	zero,44(sp)
    4678:	d9802617 	ldw	r6,152(sp)
    467c:	d8c00d17 	ldw	r3,52(sp)
    4680:	30800044 	addi	r2,r6,1
    4684:	18ad883a 	add	r22,r3,r2
    4688:	b13fffc4 	addi	r4,r22,-1
    468c:	d9000e15 	stw	r4,56(sp)
    4690:	0581f60e 	bge	zero,r22,4e6c <_dtoa_r+0x1570>
    4694:	dd800f15 	stw	r22,60(sp)
    4698:	003f3006 	br	435c <_dtoa_r+0xa60>
    469c:	d8000b15 	stw	zero,44(sp)
    46a0:	d9002617 	ldw	r4,152(sp)
    46a4:	0101eb0e 	bge	zero,r4,4e54 <_dtoa_r+0x1558>
    46a8:	202d883a 	mov	r22,r4
    46ac:	d9000e15 	stw	r4,56(sp)
    46b0:	d9000f15 	stw	r4,60(sp)
    46b4:	003f2906 	br	435c <_dtoa_r+0xa60>
    46b8:	01800044 	movi	r6,1
    46bc:	d9800b15 	stw	r6,44(sp)
    46c0:	003ff706 	br	46a0 <_dtoa_r+0xda4>
    46c4:	01000044 	movi	r4,1
    46c8:	d9000b15 	stw	r4,44(sp)
    46cc:	003fea06 	br	4678 <_dtoa_r+0xd7c>
    46d0:	04000c0e 	bge	zero,r16,4704 <_dtoa_r+0xe08>
    46d4:	d9400717 	ldw	r5,28(sp)
    46d8:	d9001617 	ldw	r4,88(sp)
    46dc:	01800044 	movi	r6,1
    46e0:	00073d40 	call	73d4 <__lshift>
    46e4:	1009883a 	mov	r4,r2
    46e8:	900b883a 	mov	r5,r18
    46ec:	d8800715 	stw	r2,28(sp)
    46f0:	0006bec0 	call	6bec <__mcmp>
    46f4:	0081e00e 	bge	zero,r2,4e78 <_dtoa_r+0x157c>
    46f8:	bdc00044 	addi	r23,r23,1
    46fc:	00800e84 	movi	r2,58
    4700:	b881a226 	beq	r23,r2,4d8c <_dtoa_r+0x1490>
    4704:	b7000044 	addi	fp,r22,1
    4708:	b5c00005 	stb	r23,0(r22)
    470c:	003f7406 	br	44e0 <_dtoa_r+0xbe4>
    4710:	00800e44 	movi	r2,57
    4714:	b8819d26 	beq	r23,r2,4d8c <_dtoa_r+0x1490>
    4718:	053ffa0e 	bge	zero,r20,4704 <_dtoa_r+0xe08>
    471c:	8dc00c44 	addi	r23,r17,49
    4720:	003ff806 	br	4704 <_dtoa_r+0xe08>
    4724:	d9001617 	ldw	r4,88(sp)
    4728:	a80b883a 	mov	r5,r21
    472c:	04000044 	movi	r16,1
    4730:	0006a900 	call	6a90 <_Bfree>
    4734:	003edf06 	br	42b4 <_dtoa_r+0x9b8>
    4738:	d9001617 	ldw	r4,88(sp)
    473c:	980b883a 	mov	r5,r19
    4740:	01800284 	movi	r6,10
    4744:	000f883a 	mov	r7,zero
    4748:	00077440 	call	7744 <__multadd>
    474c:	1027883a 	mov	r19,r2
    4750:	d8800615 	stw	r2,24(sp)
    4754:	003ebb06 	br	4244 <_dtoa_r+0x948>
    4758:	d9801117 	ldw	r6,68(sp)
    475c:	d8800d17 	ldw	r2,52(sp)
    4760:	d8000915 	stw	zero,36(sp)
    4764:	308dc83a 	sub	r6,r6,r2
    4768:	0087c83a 	sub	r3,zero,r2
    476c:	d9801115 	stw	r6,68(sp)
    4770:	d8c01015 	stw	r3,64(sp)
    4774:	003cfe06 	br	3b70 <_dtoa_r+0x274>
    4778:	018dc83a 	sub	r6,zero,r6
    477c:	d9801115 	stw	r6,68(sp)
    4780:	d8000a15 	stw	zero,40(sp)
    4784:	003cf306 	br	3b54 <_dtoa_r+0x258>
    4788:	d9000d17 	ldw	r4,52(sp)
    478c:	000a1480 	call	a148 <__floatsidf>
    4790:	880b883a 	mov	r5,r17
    4794:	8009883a 	mov	r4,r16
    4798:	180f883a 	mov	r7,r3
    479c:	100d883a 	mov	r6,r2
    47a0:	0009f280 	call	9f28 <__nedf2>
    47a4:	103ce126 	beq	r2,zero,3b2c <_dtoa_r+0x230>
    47a8:	d9800d17 	ldw	r6,52(sp)
    47ac:	31bfffc4 	addi	r6,r6,-1
    47b0:	d9800d15 	stw	r6,52(sp)
    47b4:	003cdd06 	br	3b2c <_dtoa_r+0x230>
    47b8:	d9000717 	ldw	r4,28(sp)
    47bc:	900b883a 	mov	r5,r18
    47c0:	0006bec0 	call	6bec <__mcmp>
    47c4:	103e8d0e 	bge	r2,zero,41fc <_dtoa_r+0x900>
    47c8:	d9400717 	ldw	r5,28(sp)
    47cc:	d9001617 	ldw	r4,88(sp)
    47d0:	01800284 	movi	r6,10
    47d4:	000f883a 	mov	r7,zero
    47d8:	00077440 	call	7744 <__multadd>
    47dc:	d9800d17 	ldw	r6,52(sp)
    47e0:	d8800715 	stw	r2,28(sp)
    47e4:	31bfffc4 	addi	r6,r6,-1
    47e8:	d9800d15 	stw	r6,52(sp)
    47ec:	b001a71e 	bne	r22,zero,4e8c <_dtoa_r+0x1590>
    47f0:	d8800e17 	ldw	r2,56(sp)
    47f4:	d8800f15 	stw	r2,60(sp)
    47f8:	003e8006 	br	41fc <_dtoa_r+0x900>
    47fc:	90800417 	ldw	r2,16(r18)
    4800:	1085883a 	add	r2,r2,r2
    4804:	1085883a 	add	r2,r2,r2
    4808:	1485883a 	add	r2,r2,r18
    480c:	11000417 	ldw	r4,16(r2)
    4810:	0006ab80 	call	6ab8 <__hi0bits>
    4814:	00c00804 	movi	r3,32
    4818:	1887c83a 	sub	r3,r3,r2
    481c:	003e5a06 	br	4188 <_dtoa_r+0x88c>
    4820:	d9400717 	ldw	r5,28(sp)
    4824:	d9801017 	ldw	r6,64(sp)
    4828:	d9001617 	ldw	r4,88(sp)
    482c:	00078440 	call	7844 <__pow5mult>
    4830:	d8800715 	stw	r2,28(sp)
    4834:	003e4306 	br	4144 <_dtoa_r+0x848>
    4838:	d9800f17 	ldw	r6,60(sp)
    483c:	d8800d17 	ldw	r2,52(sp)
    4840:	d9800315 	stw	r6,12(sp)
    4844:	d8800415 	stw	r2,16(sp)
    4848:	d8c00b17 	ldw	r3,44(sp)
    484c:	1805003a 	cmpeq	r2,r3,zero
    4850:	1000e21e 	bne	r2,zero,4bdc <_dtoa_r+0x12e0>
    4854:	d9000317 	ldw	r4,12(sp)
    4858:	0005883a 	mov	r2,zero
    485c:	00cff834 	movhi	r3,16352
    4860:	200c90fa 	slli	r6,r4,3
    4864:	01000074 	movhi	r4,1
    4868:	213a9e04 	addi	r4,r4,-5512
    486c:	180b883a 	mov	r5,r3
    4870:	310d883a 	add	r6,r6,r4
    4874:	327fff17 	ldw	r9,-4(r6)
    4878:	323ffe17 	ldw	r8,-8(r6)
    487c:	1009883a 	mov	r4,r2
    4880:	480f883a 	mov	r7,r9
    4884:	400d883a 	mov	r6,r8
    4888:	0009c480 	call	9c48 <__divdf3>
    488c:	180b883a 	mov	r5,r3
    4890:	b00d883a 	mov	r6,r22
    4894:	b80f883a 	mov	r7,r23
    4898:	1009883a 	mov	r4,r2
    489c:	00097900 	call	9790 <__subdf3>
    48a0:	a80b883a 	mov	r5,r21
    48a4:	a009883a 	mov	r4,r20
    48a8:	d8c01915 	stw	r3,100(sp)
    48ac:	d8801815 	stw	r2,96(sp)
    48b0:	000a2400 	call	a240 <__fixdfsi>
    48b4:	1009883a 	mov	r4,r2
    48b8:	1027883a 	mov	r19,r2
    48bc:	000a1480 	call	a148 <__floatsidf>
    48c0:	a80b883a 	mov	r5,r21
    48c4:	a009883a 	mov	r4,r20
    48c8:	180f883a 	mov	r7,r3
    48cc:	100d883a 	mov	r6,r2
    48d0:	00097900 	call	9790 <__subdf3>
    48d4:	d9801817 	ldw	r6,96(sp)
    48d8:	1823883a 	mov	r17,r3
    48dc:	d8801415 	stw	r2,80(sp)
    48e0:	302d883a 	mov	r22,r6
    48e4:	d9800517 	ldw	r6,20(sp)
    48e8:	9cc00c04 	addi	r19,r19,48
    48ec:	dc401515 	stw	r17,84(sp)
    48f0:	d8c01917 	ldw	r3,100(sp)
    48f4:	34c00005 	stb	r19,0(r6)
    48f8:	d8800517 	ldw	r2,20(sp)
    48fc:	d9401917 	ldw	r5,100(sp)
    4900:	d9801417 	ldw	r6,80(sp)
    4904:	b009883a 	mov	r4,r22
    4908:	880f883a 	mov	r7,r17
    490c:	182f883a 	mov	r23,r3
    4910:	17000044 	addi	fp,r2,1
    4914:	0009fb00 	call	9fb0 <__gtdf2>
    4918:	00804e16 	blt	zero,r2,4a54 <_dtoa_r+0x1158>
    491c:	d9801417 	ldw	r6,80(sp)
    4920:	0005883a 	mov	r2,zero
    4924:	00cffc34 	movhi	r3,16368
    4928:	180b883a 	mov	r5,r3
    492c:	880f883a 	mov	r7,r17
    4930:	1009883a 	mov	r4,r2
    4934:	00097900 	call	9790 <__subdf3>
    4938:	d9401917 	ldw	r5,100(sp)
    493c:	180f883a 	mov	r7,r3
    4940:	b009883a 	mov	r4,r22
    4944:	100d883a 	mov	r6,r2
    4948:	0009fb00 	call	9fb0 <__gtdf2>
    494c:	00bda216 	blt	zero,r2,3fd8 <_dtoa_r+0x6dc>
    4950:	d8c00317 	ldw	r3,12(sp)
    4954:	00800044 	movi	r2,1
    4958:	10c01216 	blt	r2,r3,49a4 <_dtoa_r+0x10a8>
    495c:	003d4506 	br	3e74 <_dtoa_r+0x578>
    4960:	d9801417 	ldw	r6,80(sp)
    4964:	0005883a 	mov	r2,zero
    4968:	00cffc34 	movhi	r3,16368
    496c:	180b883a 	mov	r5,r3
    4970:	880f883a 	mov	r7,r17
    4974:	1009883a 	mov	r4,r2
    4978:	00097900 	call	9790 <__subdf3>
    497c:	d9c01b17 	ldw	r7,108(sp)
    4980:	180b883a 	mov	r5,r3
    4984:	1009883a 	mov	r4,r2
    4988:	b00d883a 	mov	r6,r22
    498c:	000a0c00 	call	a0c0 <__ltdf2>
    4990:	103d9116 	blt	r2,zero,3fd8 <_dtoa_r+0x6dc>
    4994:	d9800517 	ldw	r6,20(sp)
    4998:	d9000317 	ldw	r4,12(sp)
    499c:	3105883a 	add	r2,r6,r4
    49a0:	e0bd3426 	beq	fp,r2,3e74 <_dtoa_r+0x578>
    49a4:	04500934 	movhi	r17,16420
    49a8:	0021883a 	mov	r16,zero
    49ac:	b80b883a 	mov	r5,r23
    49b0:	b009883a 	mov	r4,r22
    49b4:	800d883a 	mov	r6,r16
    49b8:	880f883a 	mov	r7,r17
    49bc:	00098840 	call	9884 <__muldf3>
    49c0:	d9401517 	ldw	r5,84(sp)
    49c4:	d9001417 	ldw	r4,80(sp)
    49c8:	880f883a 	mov	r7,r17
    49cc:	000d883a 	mov	r6,zero
    49d0:	d8801a15 	stw	r2,104(sp)
    49d4:	d8c01b15 	stw	r3,108(sp)
    49d8:	00098840 	call	9884 <__muldf3>
    49dc:	180b883a 	mov	r5,r3
    49e0:	1009883a 	mov	r4,r2
    49e4:	1823883a 	mov	r17,r3
    49e8:	1021883a 	mov	r16,r2
    49ec:	000a2400 	call	a240 <__fixdfsi>
    49f0:	1009883a 	mov	r4,r2
    49f4:	102b883a 	mov	r21,r2
    49f8:	000a1480 	call	a148 <__floatsidf>
    49fc:	880b883a 	mov	r5,r17
    4a00:	8009883a 	mov	r4,r16
    4a04:	180f883a 	mov	r7,r3
    4a08:	100d883a 	mov	r6,r2
    4a0c:	00097900 	call	9790 <__subdf3>
    4a10:	1021883a 	mov	r16,r2
    4a14:	d9001b17 	ldw	r4,108(sp)
    4a18:	1823883a 	mov	r17,r3
    4a1c:	dc001415 	stw	r16,80(sp)
    4a20:	ad400c04 	addi	r21,r21,48
    4a24:	dc401515 	stw	r17,84(sp)
    4a28:	d8801a17 	ldw	r2,104(sp)
    4a2c:	e5400005 	stb	r21,0(fp)
    4a30:	202f883a 	mov	r23,r4
    4a34:	d9c01b17 	ldw	r7,108(sp)
    4a38:	d9001417 	ldw	r4,80(sp)
    4a3c:	880b883a 	mov	r5,r17
    4a40:	100d883a 	mov	r6,r2
    4a44:	102d883a 	mov	r22,r2
    4a48:	e7000044 	addi	fp,fp,1
    4a4c:	000a0c00 	call	a0c0 <__ltdf2>
    4a50:	103fc30e 	bge	r2,zero,4960 <_dtoa_r+0x1064>
    4a54:	d9000417 	ldw	r4,16(sp)
    4a58:	d9000d15 	stw	r4,52(sp)
    4a5c:	003d7106 	br	4024 <_dtoa_r+0x728>
    4a60:	d9801717 	ldw	r6,92(sp)
    4a64:	00800084 	movi	r2,2
    4a68:	11bde60e 	bge	r2,r6,4204 <_dtoa_r+0x908>
    4a6c:	203cfb1e 	bne	r4,zero,3e5c <_dtoa_r+0x560>
    4a70:	d9001617 	ldw	r4,88(sp)
    4a74:	900b883a 	mov	r5,r18
    4a78:	01800144 	movi	r6,5
    4a7c:	000f883a 	mov	r7,zero
    4a80:	00077440 	call	7744 <__multadd>
    4a84:	d9000717 	ldw	r4,28(sp)
    4a88:	100b883a 	mov	r5,r2
    4a8c:	1025883a 	mov	r18,r2
    4a90:	0006bec0 	call	6bec <__mcmp>
    4a94:	00bcf10e 	bge	zero,r2,3e5c <_dtoa_r+0x560>
    4a98:	d8c00d17 	ldw	r3,52(sp)
    4a9c:	d9000517 	ldw	r4,20(sp)
    4aa0:	d8000615 	stw	zero,24(sp)
    4aa4:	18c00044 	addi	r3,r3,1
    4aa8:	d8c00d15 	stw	r3,52(sp)
    4aac:	00800c44 	movi	r2,49
    4ab0:	27000044 	addi	fp,r4,1
    4ab4:	20800005 	stb	r2,0(r4)
    4ab8:	003e8906 	br	44e0 <_dtoa_r+0xbe4>
    4abc:	d8c00517 	ldw	r3,20(sp)
    4ac0:	003bc206 	br	39cc <_dtoa_r+0xd0>
    4ac4:	01800074 	movhi	r6,1
    4ac8:	31bad004 	addi	r6,r6,-5312
    4acc:	30c00917 	ldw	r3,36(r6)
    4ad0:	30800817 	ldw	r2,32(r6)
    4ad4:	d9001217 	ldw	r4,72(sp)
    4ad8:	d9401317 	ldw	r5,76(sp)
    4adc:	180f883a 	mov	r7,r3
    4ae0:	100d883a 	mov	r6,r2
    4ae4:	0009c480 	call	9c48 <__divdf3>
    4ae8:	948003cc 	andi	r18,r18,15
    4aec:	058000c4 	movi	r22,3
    4af0:	1029883a 	mov	r20,r2
    4af4:	182b883a 	mov	r21,r3
    4af8:	003c8906 	br	3d20 <_dtoa_r+0x424>
    4afc:	d9001017 	ldw	r4,64(sp)
    4b00:	d9800917 	ldw	r6,36(sp)
    4b04:	0025883a 	mov	r18,zero
    4b08:	1105c83a 	sub	r2,r2,r4
    4b0c:	2089883a 	add	r4,r4,r2
    4b10:	308d883a 	add	r6,r6,r2
    4b14:	d9001015 	stw	r4,64(sp)
    4b18:	d9800915 	stw	r6,36(sp)
    4b1c:	003e3206 	br	43e8 <_dtoa_r+0xaec>
    4b20:	28800044 	addi	r2,r5,1
    4b24:	27000044 	addi	fp,r4,1
    4b28:	20800005 	stb	r2,0(r4)
    4b2c:	003e6c06 	br	44e0 <_dtoa_r+0xbe4>
    4b30:	d8800f17 	ldw	r2,60(sp)
    4b34:	00bce016 	blt	zero,r2,3eb8 <_dtoa_r+0x5bc>
    4b38:	d9800f17 	ldw	r6,60(sp)
    4b3c:	303cc51e 	bne	r6,zero,3e54 <_dtoa_r+0x558>
    4b40:	0005883a 	mov	r2,zero
    4b44:	00d00534 	movhi	r3,16404
    4b48:	980b883a 	mov	r5,r19
    4b4c:	180f883a 	mov	r7,r3
    4b50:	9009883a 	mov	r4,r18
    4b54:	100d883a 	mov	r6,r2
    4b58:	00098840 	call	9884 <__muldf3>
    4b5c:	180b883a 	mov	r5,r3
    4b60:	a80f883a 	mov	r7,r21
    4b64:	1009883a 	mov	r4,r2
    4b68:	a00d883a 	mov	r6,r20
    4b6c:	000a0380 	call	a038 <__gedf2>
    4b70:	103cb80e 	bge	r2,zero,3e54 <_dtoa_r+0x558>
    4b74:	0027883a 	mov	r19,zero
    4b78:	0025883a 	mov	r18,zero
    4b7c:	003fc606 	br	4a98 <_dtoa_r+0x119c>
    4b80:	99400117 	ldw	r5,4(r19)
    4b84:	d9001617 	ldw	r4,88(sp)
    4b88:	00070100 	call	7010 <_Balloc>
    4b8c:	99800417 	ldw	r6,16(r19)
    4b90:	11000304 	addi	r4,r2,12
    4b94:	99400304 	addi	r5,r19,12
    4b98:	318d883a 	add	r6,r6,r6
    4b9c:	318d883a 	add	r6,r6,r6
    4ba0:	31800204 	addi	r6,r6,8
    4ba4:	1023883a 	mov	r17,r2
    4ba8:	00068780 	call	6878 <memcpy>
    4bac:	d9001617 	ldw	r4,88(sp)
    4bb0:	880b883a 	mov	r5,r17
    4bb4:	01800044 	movi	r6,1
    4bb8:	00073d40 	call	73d4 <__lshift>
    4bbc:	100b883a 	mov	r5,r2
    4bc0:	003d9c06 	br	4234 <_dtoa_r+0x938>
    4bc4:	00800e44 	movi	r2,57
    4bc8:	b8807026 	beq	r23,r2,4d8c <_dtoa_r+0x1490>
    4bcc:	b8800044 	addi	r2,r23,1
    4bd0:	b7000044 	addi	fp,r22,1
    4bd4:	b0800005 	stb	r2,0(r22)
    4bd8:	003e4106 	br	44e0 <_dtoa_r+0xbe4>
    4bdc:	d8800317 	ldw	r2,12(sp)
    4be0:	01800074 	movhi	r6,1
    4be4:	31ba9e04 	addi	r6,r6,-5512
    4be8:	b009883a 	mov	r4,r22
    4bec:	100e90fa 	slli	r7,r2,3
    4bf0:	b80b883a 	mov	r5,r23
    4bf4:	398f883a 	add	r7,r7,r6
    4bf8:	38bffe17 	ldw	r2,-8(r7)
    4bfc:	d9800517 	ldw	r6,20(sp)
    4c00:	38ffff17 	ldw	r3,-4(r7)
    4c04:	37000044 	addi	fp,r6,1
    4c08:	180f883a 	mov	r7,r3
    4c0c:	100d883a 	mov	r6,r2
    4c10:	00098840 	call	9884 <__muldf3>
    4c14:	a80b883a 	mov	r5,r21
    4c18:	a009883a 	mov	r4,r20
    4c1c:	182f883a 	mov	r23,r3
    4c20:	102d883a 	mov	r22,r2
    4c24:	000a2400 	call	a240 <__fixdfsi>
    4c28:	1009883a 	mov	r4,r2
    4c2c:	1027883a 	mov	r19,r2
    4c30:	000a1480 	call	a148 <__floatsidf>
    4c34:	a80b883a 	mov	r5,r21
    4c38:	a009883a 	mov	r4,r20
    4c3c:	180f883a 	mov	r7,r3
    4c40:	100d883a 	mov	r6,r2
    4c44:	00097900 	call	9790 <__subdf3>
    4c48:	180b883a 	mov	r5,r3
    4c4c:	d8c00517 	ldw	r3,20(sp)
    4c50:	9cc00c04 	addi	r19,r19,48
    4c54:	1009883a 	mov	r4,r2
    4c58:	1cc00005 	stb	r19,0(r3)
    4c5c:	2021883a 	mov	r16,r4
    4c60:	d9000317 	ldw	r4,12(sp)
    4c64:	00800044 	movi	r2,1
    4c68:	2823883a 	mov	r17,r5
    4c6c:	20802226 	beq	r4,r2,4cf8 <_dtoa_r+0x13fc>
    4c70:	1029883a 	mov	r20,r2
    4c74:	0005883a 	mov	r2,zero
    4c78:	00d00934 	movhi	r3,16420
    4c7c:	180f883a 	mov	r7,r3
    4c80:	100d883a 	mov	r6,r2
    4c84:	880b883a 	mov	r5,r17
    4c88:	8009883a 	mov	r4,r16
    4c8c:	00098840 	call	9884 <__muldf3>
    4c90:	180b883a 	mov	r5,r3
    4c94:	1009883a 	mov	r4,r2
    4c98:	1823883a 	mov	r17,r3
    4c9c:	1021883a 	mov	r16,r2
    4ca0:	000a2400 	call	a240 <__fixdfsi>
    4ca4:	1009883a 	mov	r4,r2
    4ca8:	102b883a 	mov	r21,r2
    4cac:	000a1480 	call	a148 <__floatsidf>
    4cb0:	880b883a 	mov	r5,r17
    4cb4:	8009883a 	mov	r4,r16
    4cb8:	180f883a 	mov	r7,r3
    4cbc:	100d883a 	mov	r6,r2
    4cc0:	00097900 	call	9790 <__subdf3>
    4cc4:	180b883a 	mov	r5,r3
    4cc8:	d8c00517 	ldw	r3,20(sp)
    4ccc:	1009883a 	mov	r4,r2
    4cd0:	ad400c04 	addi	r21,r21,48
    4cd4:	1d05883a 	add	r2,r3,r20
    4cd8:	15400005 	stb	r21,0(r2)
    4cdc:	2021883a 	mov	r16,r4
    4ce0:	d9000317 	ldw	r4,12(sp)
    4ce4:	a5000044 	addi	r20,r20,1
    4ce8:	2823883a 	mov	r17,r5
    4cec:	a13fe11e 	bne	r20,r4,4c74 <_dtoa_r+0x1378>
    4cf0:	e505883a 	add	r2,fp,r20
    4cf4:	173fffc4 	addi	fp,r2,-1
    4cf8:	0025883a 	mov	r18,zero
    4cfc:	04cff834 	movhi	r19,16352
    4d00:	b009883a 	mov	r4,r22
    4d04:	b80b883a 	mov	r5,r23
    4d08:	900d883a 	mov	r6,r18
    4d0c:	980f883a 	mov	r7,r19
    4d10:	00098100 	call	9810 <__adddf3>
    4d14:	180b883a 	mov	r5,r3
    4d18:	1009883a 	mov	r4,r2
    4d1c:	800d883a 	mov	r6,r16
    4d20:	880f883a 	mov	r7,r17
    4d24:	000a0c00 	call	a0c0 <__ltdf2>
    4d28:	103cab16 	blt	r2,zero,3fd8 <_dtoa_r+0x6dc>
    4d2c:	0009883a 	mov	r4,zero
    4d30:	980b883a 	mov	r5,r19
    4d34:	b80f883a 	mov	r7,r23
    4d38:	b00d883a 	mov	r6,r22
    4d3c:	00097900 	call	9790 <__subdf3>
    4d40:	180b883a 	mov	r5,r3
    4d44:	880f883a 	mov	r7,r17
    4d48:	1009883a 	mov	r4,r2
    4d4c:	800d883a 	mov	r6,r16
    4d50:	0009fb00 	call	9fb0 <__gtdf2>
    4d54:	00bc470e 	bge	zero,r2,3e74 <_dtoa_r+0x578>
    4d58:	00c00c04 	movi	r3,48
    4d5c:	e73fffc4 	addi	fp,fp,-1
    4d60:	e0800007 	ldb	r2,0(fp)
    4d64:	10fffd26 	beq	r2,r3,4d5c <_dtoa_r+0x1460>
    4d68:	d9800417 	ldw	r6,16(sp)
    4d6c:	e7000044 	addi	fp,fp,1
    4d70:	d9800d15 	stw	r6,52(sp)
    4d74:	003cab06 	br	4024 <_dtoa_r+0x728>
    4d78:	d8c00f17 	ldw	r3,60(sp)
    4d7c:	d9001117 	ldw	r4,68(sp)
    4d80:	20e1c83a 	sub	r16,r4,r3
    4d84:	0007883a 	mov	r3,zero
    4d88:	003d9b06 	br	43f8 <_dtoa_r+0xafc>
    4d8c:	00800e44 	movi	r2,57
    4d90:	b0800005 	stb	r2,0(r22)
    4d94:	b5800044 	addi	r22,r22,1
    4d98:	003dc106 	br	44a0 <_dtoa_r+0xba4>
    4d9c:	05800084 	movi	r22,2
    4da0:	003bf706 	br	3d80 <_dtoa_r+0x484>
    4da4:	d9000f17 	ldw	r4,60(sp)
    4da8:	013c000e 	bge	zero,r4,3dac <_dtoa_r+0x4b0>
    4dac:	d9800e17 	ldw	r6,56(sp)
    4db0:	01bc300e 	bge	zero,r6,3e74 <_dtoa_r+0x578>
    4db4:	0005883a 	mov	r2,zero
    4db8:	00d00934 	movhi	r3,16420
    4dbc:	a80b883a 	mov	r5,r21
    4dc0:	180f883a 	mov	r7,r3
    4dc4:	a009883a 	mov	r4,r20
    4dc8:	100d883a 	mov	r6,r2
    4dcc:	00098840 	call	9884 <__muldf3>
    4dd0:	b1000044 	addi	r4,r22,1
    4dd4:	1021883a 	mov	r16,r2
    4dd8:	1823883a 	mov	r17,r3
    4ddc:	000a1480 	call	a148 <__floatsidf>
    4de0:	880b883a 	mov	r5,r17
    4de4:	8009883a 	mov	r4,r16
    4de8:	180f883a 	mov	r7,r3
    4dec:	100d883a 	mov	r6,r2
    4df0:	00098840 	call	9884 <__muldf3>
    4df4:	0011883a 	mov	r8,zero
    4df8:	02500734 	movhi	r9,16412
    4dfc:	180b883a 	mov	r5,r3
    4e00:	480f883a 	mov	r7,r9
    4e04:	1009883a 	mov	r4,r2
    4e08:	400d883a 	mov	r6,r8
    4e0c:	00098100 	call	9810 <__adddf3>
    4e10:	102d883a 	mov	r22,r2
    4e14:	00bf3034 	movhi	r2,64704
    4e18:	10ef883a 	add	r23,r2,r3
    4e1c:	d8800d17 	ldw	r2,52(sp)
    4e20:	d8c00e17 	ldw	r3,56(sp)
    4e24:	8029883a 	mov	r20,r16
    4e28:	10bfffc4 	addi	r2,r2,-1
    4e2c:	882b883a 	mov	r21,r17
    4e30:	d8800415 	stw	r2,16(sp)
    4e34:	d8c00315 	stw	r3,12(sp)
    4e38:	003e8306 	br	4848 <_dtoa_r+0xf4c>
    4e3c:	d8800117 	ldw	r2,4(sp)
    4e40:	dc001117 	ldw	r16,68(sp)
    4e44:	dc801017 	ldw	r18,64(sp)
    4e48:	00c00d84 	movi	r3,54
    4e4c:	1887c83a 	sub	r3,r3,r2
    4e50:	003d6906 	br	43f8 <_dtoa_r+0xafc>
    4e54:	01800044 	movi	r6,1
    4e58:	3021883a 	mov	r16,r6
    4e5c:	d9800f15 	stw	r6,60(sp)
    4e60:	d9802615 	stw	r6,152(sp)
    4e64:	d9800e15 	stw	r6,56(sp)
    4e68:	003b9306 	br	3cb8 <_dtoa_r+0x3bc>
    4e6c:	b021883a 	mov	r16,r22
    4e70:	dd800f15 	stw	r22,60(sp)
    4e74:	003b9006 	br	3cb8 <_dtoa_r+0x3bc>
    4e78:	103e221e 	bne	r2,zero,4704 <_dtoa_r+0xe08>
    4e7c:	b880004c 	andi	r2,r23,1
    4e80:	1005003a 	cmpeq	r2,r2,zero
    4e84:	103e1f1e 	bne	r2,zero,4704 <_dtoa_r+0xe08>
    4e88:	003e1b06 	br	46f8 <_dtoa_r+0xdfc>
    4e8c:	d9001617 	ldw	r4,88(sp)
    4e90:	980b883a 	mov	r5,r19
    4e94:	01800284 	movi	r6,10
    4e98:	000f883a 	mov	r7,zero
    4e9c:	00077440 	call	7744 <__multadd>
    4ea0:	d8c00e17 	ldw	r3,56(sp)
    4ea4:	1027883a 	mov	r19,r2
    4ea8:	d8c00f15 	stw	r3,60(sp)
    4eac:	003cd306 	br	41fc <_dtoa_r+0x900>

00004eb0 <_fflush_r>:
    4eb0:	defffb04 	addi	sp,sp,-20
    4eb4:	dcc00315 	stw	r19,12(sp)
    4eb8:	dc800215 	stw	r18,8(sp)
    4ebc:	dfc00415 	stw	ra,16(sp)
    4ec0:	dc400115 	stw	r17,4(sp)
    4ec4:	dc000015 	stw	r16,0(sp)
    4ec8:	2027883a 	mov	r19,r4
    4ecc:	2825883a 	mov	r18,r5
    4ed0:	20000226 	beq	r4,zero,4edc <_fflush_r+0x2c>
    4ed4:	20800e17 	ldw	r2,56(r4)
    4ed8:	10005626 	beq	r2,zero,5034 <_fflush_r+0x184>
    4edc:	9100030b 	ldhu	r4,12(r18)
    4ee0:	20ffffcc 	andi	r3,r4,65535
    4ee4:	18e0001c 	xori	r3,r3,32768
    4ee8:	18e00004 	addi	r3,r3,-32768
    4eec:	1880020c 	andi	r2,r3,8
    4ef0:	1000261e 	bne	r2,zero,4f8c <_fflush_r+0xdc>
    4ef4:	90c00117 	ldw	r3,4(r18)
    4ef8:	20820014 	ori	r2,r4,2048
    4efc:	9080030d 	sth	r2,12(r18)
    4f00:	1009883a 	mov	r4,r2
    4f04:	00c0400e 	bge	zero,r3,5008 <_fflush_r+0x158>
    4f08:	92000a17 	ldw	r8,40(r18)
    4f0c:	40004026 	beq	r8,zero,5010 <_fflush_r+0x160>
    4f10:	2084000c 	andi	r2,r4,4096
    4f14:	10005326 	beq	r2,zero,5064 <_fflush_r+0x1b4>
    4f18:	94001417 	ldw	r16,80(r18)
    4f1c:	9080030b 	ldhu	r2,12(r18)
    4f20:	1080010c 	andi	r2,r2,4
    4f24:	1000481e 	bne	r2,zero,5048 <_fflush_r+0x198>
    4f28:	91400717 	ldw	r5,28(r18)
    4f2c:	9809883a 	mov	r4,r19
    4f30:	800d883a 	mov	r6,r16
    4f34:	000f883a 	mov	r7,zero
    4f38:	403ee83a 	callr	r8
    4f3c:	8080261e 	bne	r16,r2,4fd8 <_fflush_r+0x128>
    4f40:	9080030b 	ldhu	r2,12(r18)
    4f44:	91000417 	ldw	r4,16(r18)
    4f48:	90000115 	stw	zero,4(r18)
    4f4c:	10bdffcc 	andi	r2,r2,63487
    4f50:	10ffffcc 	andi	r3,r2,65535
    4f54:	18c4000c 	andi	r3,r3,4096
    4f58:	9080030d 	sth	r2,12(r18)
    4f5c:	91000015 	stw	r4,0(r18)
    4f60:	18002b26 	beq	r3,zero,5010 <_fflush_r+0x160>
    4f64:	0007883a 	mov	r3,zero
    4f68:	1805883a 	mov	r2,r3
    4f6c:	94001415 	stw	r16,80(r18)
    4f70:	dfc00417 	ldw	ra,16(sp)
    4f74:	dcc00317 	ldw	r19,12(sp)
    4f78:	dc800217 	ldw	r18,8(sp)
    4f7c:	dc400117 	ldw	r17,4(sp)
    4f80:	dc000017 	ldw	r16,0(sp)
    4f84:	dec00504 	addi	sp,sp,20
    4f88:	f800283a 	ret
    4f8c:	94400417 	ldw	r17,16(r18)
    4f90:	88001f26 	beq	r17,zero,5010 <_fflush_r+0x160>
    4f94:	90800017 	ldw	r2,0(r18)
    4f98:	18c000cc 	andi	r3,r3,3
    4f9c:	94400015 	stw	r17,0(r18)
    4fa0:	1461c83a 	sub	r16,r2,r17
    4fa4:	18002526 	beq	r3,zero,503c <_fflush_r+0x18c>
    4fa8:	0005883a 	mov	r2,zero
    4fac:	90800215 	stw	r2,8(r18)
    4fb0:	0400170e 	bge	zero,r16,5010 <_fflush_r+0x160>
    4fb4:	90c00917 	ldw	r3,36(r18)
    4fb8:	91400717 	ldw	r5,28(r18)
    4fbc:	880d883a 	mov	r6,r17
    4fc0:	800f883a 	mov	r7,r16
    4fc4:	9809883a 	mov	r4,r19
    4fc8:	183ee83a 	callr	r3
    4fcc:	88a3883a 	add	r17,r17,r2
    4fd0:	80a1c83a 	sub	r16,r16,r2
    4fd4:	00bff616 	blt	zero,r2,4fb0 <_fflush_r+0x100>
    4fd8:	9080030b 	ldhu	r2,12(r18)
    4fdc:	00ffffc4 	movi	r3,-1
    4fe0:	10801014 	ori	r2,r2,64
    4fe4:	9080030d 	sth	r2,12(r18)
    4fe8:	1805883a 	mov	r2,r3
    4fec:	dfc00417 	ldw	ra,16(sp)
    4ff0:	dcc00317 	ldw	r19,12(sp)
    4ff4:	dc800217 	ldw	r18,8(sp)
    4ff8:	dc400117 	ldw	r17,4(sp)
    4ffc:	dc000017 	ldw	r16,0(sp)
    5000:	dec00504 	addi	sp,sp,20
    5004:	f800283a 	ret
    5008:	90800f17 	ldw	r2,60(r18)
    500c:	00bfbe16 	blt	zero,r2,4f08 <_fflush_r+0x58>
    5010:	0007883a 	mov	r3,zero
    5014:	1805883a 	mov	r2,r3
    5018:	dfc00417 	ldw	ra,16(sp)
    501c:	dcc00317 	ldw	r19,12(sp)
    5020:	dc800217 	ldw	r18,8(sp)
    5024:	dc400117 	ldw	r17,4(sp)
    5028:	dc000017 	ldw	r16,0(sp)
    502c:	dec00504 	addi	sp,sp,20
    5030:	f800283a 	ret
    5034:	00051480 	call	5148 <__sinit>
    5038:	003fa806 	br	4edc <_fflush_r+0x2c>
    503c:	90800517 	ldw	r2,20(r18)
    5040:	90800215 	stw	r2,8(r18)
    5044:	003fda06 	br	4fb0 <_fflush_r+0x100>
    5048:	90800117 	ldw	r2,4(r18)
    504c:	90c00c17 	ldw	r3,48(r18)
    5050:	80a1c83a 	sub	r16,r16,r2
    5054:	183fb426 	beq	r3,zero,4f28 <_fflush_r+0x78>
    5058:	90800f17 	ldw	r2,60(r18)
    505c:	80a1c83a 	sub	r16,r16,r2
    5060:	003fb106 	br	4f28 <_fflush_r+0x78>
    5064:	91400717 	ldw	r5,28(r18)
    5068:	9809883a 	mov	r4,r19
    506c:	000d883a 	mov	r6,zero
    5070:	01c00044 	movi	r7,1
    5074:	403ee83a 	callr	r8
    5078:	1021883a 	mov	r16,r2
    507c:	00bfffc4 	movi	r2,-1
    5080:	80800226 	beq	r16,r2,508c <_fflush_r+0x1dc>
    5084:	92000a17 	ldw	r8,40(r18)
    5088:	003fa406 	br	4f1c <_fflush_r+0x6c>
    508c:	98c00017 	ldw	r3,0(r19)
    5090:	00800744 	movi	r2,29
    5094:	18bfde26 	beq	r3,r2,5010 <_fflush_r+0x160>
    5098:	9080030b 	ldhu	r2,12(r18)
    509c:	8007883a 	mov	r3,r16
    50a0:	10801014 	ori	r2,r2,64
    50a4:	9080030d 	sth	r2,12(r18)
    50a8:	003fcf06 	br	4fe8 <_fflush_r+0x138>

000050ac <fflush>:
    50ac:	01400034 	movhi	r5,0
    50b0:	2953ac04 	addi	r5,r5,20144
    50b4:	2007883a 	mov	r3,r4
    50b8:	20000526 	beq	r4,zero,50d0 <fflush+0x24>
    50bc:	00800074 	movhi	r2,1
    50c0:	1081b304 	addi	r2,r2,1740
    50c4:	11000017 	ldw	r4,0(r2)
    50c8:	180b883a 	mov	r5,r3
    50cc:	0004eb01 	jmpi	4eb0 <_fflush_r>
    50d0:	00800074 	movhi	r2,1
    50d4:	1081b404 	addi	r2,r2,1744
    50d8:	11000017 	ldw	r4,0(r2)
    50dc:	0005c7c1 	jmpi	5c7c <_fwalk_reent>

000050e0 <std>:
    50e0:	00800074 	movhi	r2,1
    50e4:	10a05604 	addi	r2,r2,-32424
    50e8:	20800b15 	stw	r2,44(r4)
    50ec:	00800074 	movhi	r2,1
    50f0:	10a09104 	addi	r2,r2,-32188
    50f4:	20800815 	stw	r2,32(r4)
    50f8:	00c00074 	movhi	r3,1
    50fc:	18e07204 	addi	r3,r3,-32312
    5100:	00800074 	movhi	r2,1
    5104:	10a05804 	addi	r2,r2,-32416
    5108:	2140030d 	sth	r5,12(r4)
    510c:	2180038d 	sth	r6,14(r4)
    5110:	20c00915 	stw	r3,36(r4)
    5114:	20800a15 	stw	r2,40(r4)
    5118:	20000015 	stw	zero,0(r4)
    511c:	20000115 	stw	zero,4(r4)
    5120:	20000215 	stw	zero,8(r4)
    5124:	20000415 	stw	zero,16(r4)
    5128:	20000515 	stw	zero,20(r4)
    512c:	20000615 	stw	zero,24(r4)
    5130:	21000715 	stw	r4,28(r4)
    5134:	f800283a 	ret

00005138 <__sfp_lock_acquire>:
    5138:	f800283a 	ret

0000513c <__sfp_lock_release>:
    513c:	f800283a 	ret

00005140 <__sinit_lock_acquire>:
    5140:	f800283a 	ret

00005144 <__sinit_lock_release>:
    5144:	f800283a 	ret

00005148 <__sinit>:
    5148:	20800e17 	ldw	r2,56(r4)
    514c:	defffd04 	addi	sp,sp,-12
    5150:	dc400115 	stw	r17,4(sp)
    5154:	dc000015 	stw	r16,0(sp)
    5158:	dfc00215 	stw	ra,8(sp)
    515c:	04400044 	movi	r17,1
    5160:	01400104 	movi	r5,4
    5164:	000d883a 	mov	r6,zero
    5168:	2021883a 	mov	r16,r4
    516c:	2200bb04 	addi	r8,r4,748
    5170:	200f883a 	mov	r7,r4
    5174:	10000526 	beq	r2,zero,518c <__sinit+0x44>
    5178:	dfc00217 	ldw	ra,8(sp)
    517c:	dc400117 	ldw	r17,4(sp)
    5180:	dc000017 	ldw	r16,0(sp)
    5184:	dec00304 	addi	sp,sp,12
    5188:	f800283a 	ret
    518c:	21000117 	ldw	r4,4(r4)
    5190:	00800034 	movhi	r2,0
    5194:	10948b04 	addi	r2,r2,21036
    5198:	00c000c4 	movi	r3,3
    519c:	80800f15 	stw	r2,60(r16)
    51a0:	80c0b915 	stw	r3,740(r16)
    51a4:	8200ba15 	stw	r8,744(r16)
    51a8:	84400e15 	stw	r17,56(r16)
    51ac:	8000b815 	stw	zero,736(r16)
    51b0:	00050e00 	call	50e0 <std>
    51b4:	81000217 	ldw	r4,8(r16)
    51b8:	880d883a 	mov	r6,r17
    51bc:	800f883a 	mov	r7,r16
    51c0:	01400284 	movi	r5,10
    51c4:	00050e00 	call	50e0 <std>
    51c8:	81000317 	ldw	r4,12(r16)
    51cc:	800f883a 	mov	r7,r16
    51d0:	01400484 	movi	r5,18
    51d4:	01800084 	movi	r6,2
    51d8:	dfc00217 	ldw	ra,8(sp)
    51dc:	dc400117 	ldw	r17,4(sp)
    51e0:	dc000017 	ldw	r16,0(sp)
    51e4:	dec00304 	addi	sp,sp,12
    51e8:	00050e01 	jmpi	50e0 <std>

000051ec <__fp_lock>:
    51ec:	0005883a 	mov	r2,zero
    51f0:	f800283a 	ret

000051f4 <__fp_unlock>:
    51f4:	0005883a 	mov	r2,zero
    51f8:	f800283a 	ret

000051fc <__fp_unlock_all>:
    51fc:	00800074 	movhi	r2,1
    5200:	1081b304 	addi	r2,r2,1740
    5204:	11000017 	ldw	r4,0(r2)
    5208:	01400034 	movhi	r5,0
    520c:	29547d04 	addi	r5,r5,20980
    5210:	0005d441 	jmpi	5d44 <_fwalk>

00005214 <__fp_lock_all>:
    5214:	00800074 	movhi	r2,1
    5218:	1081b304 	addi	r2,r2,1740
    521c:	11000017 	ldw	r4,0(r2)
    5220:	01400034 	movhi	r5,0
    5224:	29547b04 	addi	r5,r5,20972
    5228:	0005d441 	jmpi	5d44 <_fwalk>

0000522c <_cleanup_r>:
    522c:	01400074 	movhi	r5,1
    5230:	29618304 	addi	r5,r5,-31220
    5234:	0005d441 	jmpi	5d44 <_fwalk>

00005238 <_cleanup>:
    5238:	00800074 	movhi	r2,1
    523c:	1081b404 	addi	r2,r2,1744
    5240:	11000017 	ldw	r4,0(r2)
    5244:	000522c1 	jmpi	522c <_cleanup_r>

00005248 <__sfmoreglue>:
    5248:	defffc04 	addi	sp,sp,-16
    524c:	dc400115 	stw	r17,4(sp)
    5250:	2c401724 	muli	r17,r5,92
    5254:	dc800215 	stw	r18,8(sp)
    5258:	2825883a 	mov	r18,r5
    525c:	89400304 	addi	r5,r17,12
    5260:	dc000015 	stw	r16,0(sp)
    5264:	dfc00315 	stw	ra,12(sp)
    5268:	00060540 	call	6054 <_malloc_r>
    526c:	0021883a 	mov	r16,zero
    5270:	880d883a 	mov	r6,r17
    5274:	000b883a 	mov	r5,zero
    5278:	10000626 	beq	r2,zero,5294 <__sfmoreglue+0x4c>
    527c:	11000304 	addi	r4,r2,12
    5280:	14800115 	stw	r18,4(r2)
    5284:	10000015 	stw	zero,0(r2)
    5288:	11000215 	stw	r4,8(r2)
    528c:	1021883a 	mov	r16,r2
    5290:	00069f80 	call	69f8 <memset>
    5294:	8005883a 	mov	r2,r16
    5298:	dfc00317 	ldw	ra,12(sp)
    529c:	dc800217 	ldw	r18,8(sp)
    52a0:	dc400117 	ldw	r17,4(sp)
    52a4:	dc000017 	ldw	r16,0(sp)
    52a8:	dec00404 	addi	sp,sp,16
    52ac:	f800283a 	ret

000052b0 <__sfp>:
    52b0:	defffd04 	addi	sp,sp,-12
    52b4:	00800074 	movhi	r2,1
    52b8:	1081b404 	addi	r2,r2,1744
    52bc:	dc000015 	stw	r16,0(sp)
    52c0:	14000017 	ldw	r16,0(r2)
    52c4:	dc400115 	stw	r17,4(sp)
    52c8:	dfc00215 	stw	ra,8(sp)
    52cc:	80800e17 	ldw	r2,56(r16)
    52d0:	2023883a 	mov	r17,r4
    52d4:	10002626 	beq	r2,zero,5370 <__sfp+0xc0>
    52d8:	8400b804 	addi	r16,r16,736
    52dc:	80800117 	ldw	r2,4(r16)
    52e0:	81000217 	ldw	r4,8(r16)
    52e4:	10ffffc4 	addi	r3,r2,-1
    52e8:	18000916 	blt	r3,zero,5310 <__sfp+0x60>
    52ec:	2080030f 	ldh	r2,12(r4)
    52f0:	10000b26 	beq	r2,zero,5320 <__sfp+0x70>
    52f4:	017fffc4 	movi	r5,-1
    52f8:	00000206 	br	5304 <__sfp+0x54>
    52fc:	2080030f 	ldh	r2,12(r4)
    5300:	10000726 	beq	r2,zero,5320 <__sfp+0x70>
    5304:	18ffffc4 	addi	r3,r3,-1
    5308:	21001704 	addi	r4,r4,92
    530c:	197ffb1e 	bne	r3,r5,52fc <__sfp+0x4c>
    5310:	80800017 	ldw	r2,0(r16)
    5314:	10001926 	beq	r2,zero,537c <__sfp+0xcc>
    5318:	1021883a 	mov	r16,r2
    531c:	003fef06 	br	52dc <__sfp+0x2c>
    5320:	00bfffc4 	movi	r2,-1
    5324:	00c00044 	movi	r3,1
    5328:	2080038d 	sth	r2,14(r4)
    532c:	20c0030d 	sth	r3,12(r4)
    5330:	20000015 	stw	zero,0(r4)
    5334:	20000215 	stw	zero,8(r4)
    5338:	20000115 	stw	zero,4(r4)
    533c:	20000415 	stw	zero,16(r4)
    5340:	20000515 	stw	zero,20(r4)
    5344:	20000615 	stw	zero,24(r4)
    5348:	20000c15 	stw	zero,48(r4)
    534c:	20000d15 	stw	zero,52(r4)
    5350:	20001115 	stw	zero,68(r4)
    5354:	20001215 	stw	zero,72(r4)
    5358:	2005883a 	mov	r2,r4
    535c:	dfc00217 	ldw	ra,8(sp)
    5360:	dc400117 	ldw	r17,4(sp)
    5364:	dc000017 	ldw	r16,0(sp)
    5368:	dec00304 	addi	sp,sp,12
    536c:	f800283a 	ret
    5370:	8009883a 	mov	r4,r16
    5374:	00051480 	call	5148 <__sinit>
    5378:	003fd706 	br	52d8 <__sfp+0x28>
    537c:	8809883a 	mov	r4,r17
    5380:	01400104 	movi	r5,4
    5384:	00052480 	call	5248 <__sfmoreglue>
    5388:	80800015 	stw	r2,0(r16)
    538c:	103fe21e 	bne	r2,zero,5318 <__sfp+0x68>
    5390:	00800304 	movi	r2,12
    5394:	0009883a 	mov	r4,zero
    5398:	88800015 	stw	r2,0(r17)
    539c:	003fee06 	br	5358 <__sfp+0xa8>

000053a0 <_malloc_trim_r>:
    53a0:	defffb04 	addi	sp,sp,-20
    53a4:	dcc00315 	stw	r19,12(sp)
    53a8:	04c00074 	movhi	r19,1
    53ac:	9cfbfd04 	addi	r19,r19,-4108
    53b0:	dc800215 	stw	r18,8(sp)
    53b4:	dc400115 	stw	r17,4(sp)
    53b8:	dc000015 	stw	r16,0(sp)
    53bc:	2823883a 	mov	r17,r5
    53c0:	2025883a 	mov	r18,r4
    53c4:	dfc00415 	stw	ra,16(sp)
    53c8:	000b0440 	call	b044 <__malloc_lock>
    53cc:	98800217 	ldw	r2,8(r19)
    53d0:	9009883a 	mov	r4,r18
    53d4:	000b883a 	mov	r5,zero
    53d8:	10c00117 	ldw	r3,4(r2)
    53dc:	00bfff04 	movi	r2,-4
    53e0:	18a0703a 	and	r16,r3,r2
    53e4:	8463c83a 	sub	r17,r16,r17
    53e8:	8c43fbc4 	addi	r17,r17,4079
    53ec:	8822d33a 	srli	r17,r17,12
    53f0:	0083ffc4 	movi	r2,4095
    53f4:	8c7fffc4 	addi	r17,r17,-1
    53f8:	8822933a 	slli	r17,r17,12
    53fc:	1440060e 	bge	r2,r17,5418 <_malloc_trim_r+0x78>
    5400:	00080e80 	call	80e8 <_sbrk_r>
    5404:	98c00217 	ldw	r3,8(r19)
    5408:	9009883a 	mov	r4,r18
    540c:	044bc83a 	sub	r5,zero,r17
    5410:	80c7883a 	add	r3,r16,r3
    5414:	10c00926 	beq	r2,r3,543c <_malloc_trim_r+0x9c>
    5418:	000b0640 	call	b064 <__malloc_unlock>
    541c:	0005883a 	mov	r2,zero
    5420:	dfc00417 	ldw	ra,16(sp)
    5424:	dcc00317 	ldw	r19,12(sp)
    5428:	dc800217 	ldw	r18,8(sp)
    542c:	dc400117 	ldw	r17,4(sp)
    5430:	dc000017 	ldw	r16,0(sp)
    5434:	dec00504 	addi	sp,sp,20
    5438:	f800283a 	ret
    543c:	9009883a 	mov	r4,r18
    5440:	00080e80 	call	80e8 <_sbrk_r>
    5444:	844dc83a 	sub	r6,r16,r17
    5448:	00ffffc4 	movi	r3,-1
    544c:	9009883a 	mov	r4,r18
    5450:	000b883a 	mov	r5,zero
    5454:	01c00074 	movhi	r7,1
    5458:	39c8b404 	addi	r7,r7,8912
    545c:	31800054 	ori	r6,r6,1
    5460:	10c00926 	beq	r2,r3,5488 <_malloc_trim_r+0xe8>
    5464:	38800017 	ldw	r2,0(r7)
    5468:	98c00217 	ldw	r3,8(r19)
    546c:	9009883a 	mov	r4,r18
    5470:	1445c83a 	sub	r2,r2,r17
    5474:	38800015 	stw	r2,0(r7)
    5478:	19800115 	stw	r6,4(r3)
    547c:	000b0640 	call	b064 <__malloc_unlock>
    5480:	00800044 	movi	r2,1
    5484:	003fe606 	br	5420 <_malloc_trim_r+0x80>
    5488:	00080e80 	call	80e8 <_sbrk_r>
    548c:	99800217 	ldw	r6,8(r19)
    5490:	100f883a 	mov	r7,r2
    5494:	9009883a 	mov	r4,r18
    5498:	1187c83a 	sub	r3,r2,r6
    549c:	008003c4 	movi	r2,15
    54a0:	19400054 	ori	r5,r3,1
    54a4:	10ffdc0e 	bge	r2,r3,5418 <_malloc_trim_r+0x78>
    54a8:	00800074 	movhi	r2,1
    54ac:	1081b804 	addi	r2,r2,1760
    54b0:	10c00017 	ldw	r3,0(r2)
    54b4:	00800074 	movhi	r2,1
    54b8:	1088b404 	addi	r2,r2,8912
    54bc:	31400115 	stw	r5,4(r6)
    54c0:	38c7c83a 	sub	r3,r7,r3
    54c4:	10c00015 	stw	r3,0(r2)
    54c8:	003fd306 	br	5418 <_malloc_trim_r+0x78>

000054cc <_free_r>:
    54cc:	defffd04 	addi	sp,sp,-12
    54d0:	dc400115 	stw	r17,4(sp)
    54d4:	dc000015 	stw	r16,0(sp)
    54d8:	dfc00215 	stw	ra,8(sp)
    54dc:	2821883a 	mov	r16,r5
    54e0:	2023883a 	mov	r17,r4
    54e4:	28005a26 	beq	r5,zero,5650 <_free_r+0x184>
    54e8:	000b0440 	call	b044 <__malloc_lock>
    54ec:	823ffe04 	addi	r8,r16,-8
    54f0:	41400117 	ldw	r5,4(r8)
    54f4:	00bfff84 	movi	r2,-2
    54f8:	02800074 	movhi	r10,1
    54fc:	52bbfd04 	addi	r10,r10,-4108
    5500:	288e703a 	and	r7,r5,r2
    5504:	41cd883a 	add	r6,r8,r7
    5508:	30c00117 	ldw	r3,4(r6)
    550c:	51000217 	ldw	r4,8(r10)
    5510:	00bfff04 	movi	r2,-4
    5514:	1892703a 	and	r9,r3,r2
    5518:	5017883a 	mov	r11,r10
    551c:	31006726 	beq	r6,r4,56bc <_free_r+0x1f0>
    5520:	2880004c 	andi	r2,r5,1
    5524:	1005003a 	cmpeq	r2,r2,zero
    5528:	32400115 	stw	r9,4(r6)
    552c:	10001a1e 	bne	r2,zero,5598 <_free_r+0xcc>
    5530:	000b883a 	mov	r5,zero
    5534:	3247883a 	add	r3,r6,r9
    5538:	18800117 	ldw	r2,4(r3)
    553c:	1080004c 	andi	r2,r2,1
    5540:	1000231e 	bne	r2,zero,55d0 <_free_r+0x104>
    5544:	280ac03a 	cmpne	r5,r5,zero
    5548:	3a4f883a 	add	r7,r7,r9
    554c:	2800451e 	bne	r5,zero,5664 <_free_r+0x198>
    5550:	31000217 	ldw	r4,8(r6)
    5554:	00800074 	movhi	r2,1
    5558:	10bbff04 	addi	r2,r2,-4100
    555c:	20807b26 	beq	r4,r2,574c <_free_r+0x280>
    5560:	30800317 	ldw	r2,12(r6)
    5564:	3a07883a 	add	r3,r7,r8
    5568:	19c00015 	stw	r7,0(r3)
    556c:	11000215 	stw	r4,8(r2)
    5570:	20800315 	stw	r2,12(r4)
    5574:	38800054 	ori	r2,r7,1
    5578:	40800115 	stw	r2,4(r8)
    557c:	28001a26 	beq	r5,zero,55e8 <_free_r+0x11c>
    5580:	8809883a 	mov	r4,r17
    5584:	dfc00217 	ldw	ra,8(sp)
    5588:	dc400117 	ldw	r17,4(sp)
    558c:	dc000017 	ldw	r16,0(sp)
    5590:	dec00304 	addi	sp,sp,12
    5594:	000b0641 	jmpi	b064 <__malloc_unlock>
    5598:	80bffe17 	ldw	r2,-8(r16)
    559c:	50c00204 	addi	r3,r10,8
    55a0:	4091c83a 	sub	r8,r8,r2
    55a4:	41000217 	ldw	r4,8(r8)
    55a8:	388f883a 	add	r7,r7,r2
    55ac:	20c06126 	beq	r4,r3,5734 <_free_r+0x268>
    55b0:	40800317 	ldw	r2,12(r8)
    55b4:	3247883a 	add	r3,r6,r9
    55b8:	000b883a 	mov	r5,zero
    55bc:	11000215 	stw	r4,8(r2)
    55c0:	20800315 	stw	r2,12(r4)
    55c4:	18800117 	ldw	r2,4(r3)
    55c8:	1080004c 	andi	r2,r2,1
    55cc:	103fdd26 	beq	r2,zero,5544 <_free_r+0x78>
    55d0:	38800054 	ori	r2,r7,1
    55d4:	3a07883a 	add	r3,r7,r8
    55d8:	280ac03a 	cmpne	r5,r5,zero
    55dc:	40800115 	stw	r2,4(r8)
    55e0:	19c00015 	stw	r7,0(r3)
    55e4:	283fe61e 	bne	r5,zero,5580 <_free_r+0xb4>
    55e8:	00807fc4 	movi	r2,511
    55ec:	11c01f2e 	bgeu	r2,r7,566c <_free_r+0x1a0>
    55f0:	3806d27a 	srli	r3,r7,9
    55f4:	1800481e 	bne	r3,zero,5718 <_free_r+0x24c>
    55f8:	3804d0fa 	srli	r2,r7,3
    55fc:	100690fa 	slli	r3,r2,3
    5600:	1acd883a 	add	r6,r3,r11
    5604:	31400217 	ldw	r5,8(r6)
    5608:	31405926 	beq	r6,r5,5770 <_free_r+0x2a4>
    560c:	28800117 	ldw	r2,4(r5)
    5610:	00ffff04 	movi	r3,-4
    5614:	10c4703a 	and	r2,r2,r3
    5618:	3880022e 	bgeu	r7,r2,5624 <_free_r+0x158>
    561c:	29400217 	ldw	r5,8(r5)
    5620:	317ffa1e 	bne	r6,r5,560c <_free_r+0x140>
    5624:	29800317 	ldw	r6,12(r5)
    5628:	41800315 	stw	r6,12(r8)
    562c:	41400215 	stw	r5,8(r8)
    5630:	8809883a 	mov	r4,r17
    5634:	2a000315 	stw	r8,12(r5)
    5638:	32000215 	stw	r8,8(r6)
    563c:	dfc00217 	ldw	ra,8(sp)
    5640:	dc400117 	ldw	r17,4(sp)
    5644:	dc000017 	ldw	r16,0(sp)
    5648:	dec00304 	addi	sp,sp,12
    564c:	000b0641 	jmpi	b064 <__malloc_unlock>
    5650:	dfc00217 	ldw	ra,8(sp)
    5654:	dc400117 	ldw	r17,4(sp)
    5658:	dc000017 	ldw	r16,0(sp)
    565c:	dec00304 	addi	sp,sp,12
    5660:	f800283a 	ret
    5664:	31000217 	ldw	r4,8(r6)
    5668:	003fbd06 	br	5560 <_free_r+0x94>
    566c:	3806d0fa 	srli	r3,r7,3
    5670:	00800044 	movi	r2,1
    5674:	51400117 	ldw	r5,4(r10)
    5678:	180890fa 	slli	r4,r3,3
    567c:	1807d0ba 	srai	r3,r3,2
    5680:	22c9883a 	add	r4,r4,r11
    5684:	21800217 	ldw	r6,8(r4)
    5688:	10c4983a 	sll	r2,r2,r3
    568c:	41000315 	stw	r4,12(r8)
    5690:	41800215 	stw	r6,8(r8)
    5694:	288ab03a 	or	r5,r5,r2
    5698:	22000215 	stw	r8,8(r4)
    569c:	8809883a 	mov	r4,r17
    56a0:	51400115 	stw	r5,4(r10)
    56a4:	32000315 	stw	r8,12(r6)
    56a8:	dfc00217 	ldw	ra,8(sp)
    56ac:	dc400117 	ldw	r17,4(sp)
    56b0:	dc000017 	ldw	r16,0(sp)
    56b4:	dec00304 	addi	sp,sp,12
    56b8:	000b0641 	jmpi	b064 <__malloc_unlock>
    56bc:	2880004c 	andi	r2,r5,1
    56c0:	3a4d883a 	add	r6,r7,r9
    56c4:	1000071e 	bne	r2,zero,56e4 <_free_r+0x218>
    56c8:	80bffe17 	ldw	r2,-8(r16)
    56cc:	4091c83a 	sub	r8,r8,r2
    56d0:	41000317 	ldw	r4,12(r8)
    56d4:	40c00217 	ldw	r3,8(r8)
    56d8:	308d883a 	add	r6,r6,r2
    56dc:	20c00215 	stw	r3,8(r4)
    56e0:	19000315 	stw	r4,12(r3)
    56e4:	00800074 	movhi	r2,1
    56e8:	1081b704 	addi	r2,r2,1756
    56ec:	11000017 	ldw	r4,0(r2)
    56f0:	30c00054 	ori	r3,r6,1
    56f4:	52000215 	stw	r8,8(r10)
    56f8:	40c00115 	stw	r3,4(r8)
    56fc:	313fa036 	bltu	r6,r4,5580 <_free_r+0xb4>
    5700:	00800074 	movhi	r2,1
    5704:	1088aa04 	addi	r2,r2,8872
    5708:	11400017 	ldw	r5,0(r2)
    570c:	8809883a 	mov	r4,r17
    5710:	00053a00 	call	53a0 <_malloc_trim_r>
    5714:	003f9a06 	br	5580 <_free_r+0xb4>
    5718:	00800104 	movi	r2,4
    571c:	10c0072e 	bgeu	r2,r3,573c <_free_r+0x270>
    5720:	00800504 	movi	r2,20
    5724:	10c01936 	bltu	r2,r3,578c <_free_r+0x2c0>
    5728:	188016c4 	addi	r2,r3,91
    572c:	100690fa 	slli	r3,r2,3
    5730:	003fb306 	br	5600 <_free_r+0x134>
    5734:	01400044 	movi	r5,1
    5738:	003f7e06 	br	5534 <_free_r+0x68>
    573c:	3804d1ba 	srli	r2,r7,6
    5740:	10800e04 	addi	r2,r2,56
    5744:	100690fa 	slli	r3,r2,3
    5748:	003fad06 	br	5600 <_free_r+0x134>
    574c:	22000315 	stw	r8,12(r4)
    5750:	22000215 	stw	r8,8(r4)
    5754:	3a05883a 	add	r2,r7,r8
    5758:	38c00054 	ori	r3,r7,1
    575c:	11c00015 	stw	r7,0(r2)
    5760:	41000215 	stw	r4,8(r8)
    5764:	40c00115 	stw	r3,4(r8)
    5768:	41000315 	stw	r4,12(r8)
    576c:	003f8406 	br	5580 <_free_r+0xb4>
    5770:	1005d0ba 	srai	r2,r2,2
    5774:	00c00044 	movi	r3,1
    5778:	51000117 	ldw	r4,4(r10)
    577c:	1886983a 	sll	r3,r3,r2
    5780:	20c8b03a 	or	r4,r4,r3
    5784:	51000115 	stw	r4,4(r10)
    5788:	003fa706 	br	5628 <_free_r+0x15c>
    578c:	00801504 	movi	r2,84
    5790:	10c00436 	bltu	r2,r3,57a4 <_free_r+0x2d8>
    5794:	3804d33a 	srli	r2,r7,12
    5798:	10801b84 	addi	r2,r2,110
    579c:	100690fa 	slli	r3,r2,3
    57a0:	003f9706 	br	5600 <_free_r+0x134>
    57a4:	00805504 	movi	r2,340
    57a8:	10c00436 	bltu	r2,r3,57bc <_free_r+0x2f0>
    57ac:	3804d3fa 	srli	r2,r7,15
    57b0:	10801dc4 	addi	r2,r2,119
    57b4:	100690fa 	slli	r3,r2,3
    57b8:	003f9106 	br	5600 <_free_r+0x134>
    57bc:	00815504 	movi	r2,1364
    57c0:	10c0032e 	bgeu	r2,r3,57d0 <_free_r+0x304>
    57c4:	00801f84 	movi	r2,126
    57c8:	00c0fc04 	movi	r3,1008
    57cc:	003f8c06 	br	5600 <_free_r+0x134>
    57d0:	3804d4ba 	srli	r2,r7,18
    57d4:	10801f04 	addi	r2,r2,124
    57d8:	100690fa 	slli	r3,r2,3
    57dc:	003f8806 	br	5600 <_free_r+0x134>

000057e0 <__sfvwrite_r>:
    57e0:	30800217 	ldw	r2,8(r6)
    57e4:	defff504 	addi	sp,sp,-44
    57e8:	df000915 	stw	fp,36(sp)
    57ec:	dd800715 	stw	r22,28(sp)
    57f0:	dc800315 	stw	r18,12(sp)
    57f4:	dfc00a15 	stw	ra,40(sp)
    57f8:	ddc00815 	stw	r23,32(sp)
    57fc:	dd400615 	stw	r21,24(sp)
    5800:	dd000515 	stw	r20,20(sp)
    5804:	dcc00415 	stw	r19,16(sp)
    5808:	dc400215 	stw	r17,8(sp)
    580c:	dc000115 	stw	r16,4(sp)
    5810:	302d883a 	mov	r22,r6
    5814:	2039883a 	mov	fp,r4
    5818:	2825883a 	mov	r18,r5
    581c:	10001c26 	beq	r2,zero,5890 <__sfvwrite_r+0xb0>
    5820:	29c0030b 	ldhu	r7,12(r5)
    5824:	3880020c 	andi	r2,r7,8
    5828:	10002726 	beq	r2,zero,58c8 <__sfvwrite_r+0xe8>
    582c:	28800417 	ldw	r2,16(r5)
    5830:	10002526 	beq	r2,zero,58c8 <__sfvwrite_r+0xe8>
    5834:	3880008c 	andi	r2,r7,2
    5838:	b5400017 	ldw	r21,0(r22)
    583c:	10002826 	beq	r2,zero,58e0 <__sfvwrite_r+0x100>
    5840:	0021883a 	mov	r16,zero
    5844:	0023883a 	mov	r17,zero
    5848:	880d883a 	mov	r6,r17
    584c:	e009883a 	mov	r4,fp
